################################################################################
#                                                                              #
#      IAR Universal Linker V4.61O/W32                                         #
#                                                                              #
#           Link time     =  31/Aug/2023  00:09:32                             #
#           Target CPU    =  MSP430                                            #
#           List file     =  "C:\Program Files (x86)\ChronosSoftware\eZ430-Chr #
#                            onos\Software Projects\Chronos Watch\IAR\Sports W #
#                            atch\868MHz - Limited IAR Kickstart (Europe)\List #
#                            \ez430_chronos_868MHz.map"                        #
#           Output file 1 =  "C:\Program Files (x86)\ChronosSoftware\eZ430-Chr #
#                            onos\Software Projects\Chronos Watch\IAR\Sports W #
#                            atch\868MHz - Limited IAR Kickstart (Europe)\Exe\ #
#                            ez430_chronos_868MHz.d43"                         #
#                            Format: debug                                     #
#                            UBROF version 10.0.2                              #
#                            Using library modules for C-SPY (-rt)             #
#           Command line  =  --ks_version                                      #
#                            "C:\Program Files (x86)\ChronosSoftware\eZ430-Chr #
#                            onos\Software Projects\Chronos Watch\IAR\Sports W #
#                            atch\868MHz - Limited IAR Kickstart (Europe)\Obj\ #
#                            acceleration.r43"                                 #
#                            "C:\Program Files (x86)\ChronosSoftware\eZ430-Chr #
#                            onos\Software Projects\Chronos Watch\IAR\Sports W #
#                            atch\868MHz - Limited IAR Kickstart (Europe)\Obj\ #
#                            alarm.r43"                                        #
#                            "C:\Program Files (x86)\ChronosSoftware\eZ430-Chr #
#                            onos\Software Projects\Chronos Watch\IAR\Sports W #
#                            atch\868MHz - Limited IAR Kickstart (Europe)\Obj\ #
#                            altitude.r43"                                     #
#                            "C:\Program Files (x86)\ChronosSoftware\eZ430-Chr #
#                            onos\Software Projects\Chronos Watch\IAR\Sports W #
#                            atch\868MHz - Limited IAR Kickstart (Europe)\Obj\ #
#                            battery.r43"                                      #
#                            "C:\Program Files (x86)\ChronosSoftware\eZ430-Chr #
#                            onos\Software Projects\Chronos Watch\IAR\Sports W #
#                            atch\868MHz - Limited IAR Kickstart (Europe)\Obj\ #
#                            bluerobin.r43"                                    #
#                            "C:\Program Files (x86)\ChronosSoftware\eZ430-Chr #
#                            onos\Software Projects\Chronos Watch\IAR\Sports W #
#                            atch\868MHz - Limited IAR Kickstart (Europe)\Obj\ #
#                            cinema.r43"                                       #
#                            "C:\Program Files (x86)\ChronosSoftware\eZ430-Chr #
#                            onos\Software Projects\Chronos Watch\IAR\Sports W #
#                            atch\868MHz - Limited IAR Kickstart (Europe)\Obj\ #
#                            cinesync.r43"                                     #
#                            "C:\Program Files (x86)\ChronosSoftware\eZ430-Chr #
#                            onos\Software Projects\Chronos Watch\IAR\Sports W #
#                            atch\868MHz - Limited IAR Kickstart (Europe)\Obj\ #
#                            clock.r43"                                        #
#                            "C:\Program Files (x86)\ChronosSoftware\eZ430-Chr #
#                            onos\Software Projects\Chronos Watch\IAR\Sports W #
#                            atch\868MHz - Limited IAR Kickstart (Europe)\Obj\ #
#                            date.r43"                                         #
#                            "C:\Program Files (x86)\ChronosSoftware\eZ430-Chr #
#                            onos\Software Projects\Chronos Watch\IAR\Sports W #
#                            atch\868MHz - Limited IAR Kickstart (Europe)\Obj\ #
#                            main.r43"                                         #
#                            "C:\Program Files (x86)\ChronosSoftware\eZ430-Chr #
#                            onos\Software Projects\Chronos Watch\IAR\Sports W #
#                            atch\868MHz - Limited IAR Kickstart (Europe)\Obj\ #
#                            menu.r43"                                         #
#                            "C:\Program Files (x86)\ChronosSoftware\eZ430-Chr #
#                            onos\Software Projects\Chronos Watch\IAR\Sports W #
#                            atch\868MHz - Limited IAR Kickstart (Europe)\Obj\ #
#                            rfbsl.r43"                                        #
#                            "C:\Program Files (x86)\ChronosSoftware\eZ430-Chr #
#                            onos\Software Projects\Chronos Watch\IAR\Sports W #
#                            atch\868MHz - Limited IAR Kickstart (Europe)\Obj\ #
#                            rfsimpliciti.r43"                                 #
#                            "C:\Program Files (x86)\ChronosSoftware\eZ430-Chr #
#                            onos\Software Projects\Chronos Watch\IAR\Sports W #
#                            atch\868MHz - Limited IAR Kickstart (Europe)\Obj\ #
#                            stopwatch.r43"                                    #
#                            "C:\Program Files (x86)\ChronosSoftware\eZ430-Chr #
#                            onos\Software Projects\Chronos Watch\IAR\Sports W #
#                            atch\868MHz - Limited IAR Kickstart (Europe)\Obj\ #
#                            temperature.r43"                                  #
#                            "C:\Program Files (x86)\ChronosSoftware\eZ430-Chr #
#                            onos\Software Projects\Chronos Watch\IAR\Sports W #
#                            atch\868MHz - Limited IAR Kickstart (Europe)\Obj\ #
#                            test.r43"                                         #
#                            "C:\Program Files (x86)\ChronosSoftware\eZ430-Chr #
#                            onos\Software Projects\Chronos Watch\IAR\Sports W #
#                            atch\868MHz - Limited IAR Kickstart (Europe)\Obj\ #
#                            user.r43"                                         #
#                            "C:\Program Files (x86)\ChronosSoftware\eZ430-Chr #
#                            onos\Software Projects\Chronos Watch\IAR\Sports W #
#                            atch\bluerobin\BlueRobin_RX_868MHz.r43"           #
#                            "C:\Program Files (x86)\ChronosSoftware\eZ430-Chr #
#                            onos\Software Projects\Chronos Watch\IAR\Sports W #
#                            atch\driver\ez430_chronos_codesize_limited_driver #
#                            s.r43"                                            #
#                            "C:\Program Files (x86)\ChronosSoftware\eZ430-Chr #
#                            onos\Software Projects\Chronos Watch\IAR\Sports W #
#                            atch\simpliciti\CC430_End_Device_868MHz.r43"      #
#                            -o                                                #
#                            "C:\Program Files (x86)\ChronosSoftware\eZ430-Chr #
#                            onos\Software Projects\Chronos Watch\IAR\Sports W #
#                            atch\868MHz - Limited IAR Kickstart (Europe)\Exe\ #
#                            ez430_chronos_868MHz.d43"                         #
#                            -l                                                #
#                            "C:\Program Files (x86)\ChronosSoftware\eZ430-Chr #
#                            onos\Software Projects\Chronos Watch\IAR\Sports W #
#                            atch\868MHz - Limited IAR Kickstart (Europe)\List #
#                            \ez430_chronos_868MHz.map"                        #
#                            -xms                                              #
#                            "-IC:\Program Files (x86)\ChronosSoftware\IAR Sys #
#                            tems\Embedded Workbench 5.4 Kickstart\430\LIB\"   #
#                            -f                                                #
#                            "C:\Program Files (x86)\ChronosSoftware\IAR Syste #
#                            ms\Embedded Workbench 5.4 Kickstart\430\CONFIG\ln #
#                            kCC430F6137.xcl"                                  #
#                            (-cmsp430                                         #
#                            -Z(DATA)DATA16_I,DATA16_Z,DATA16_N,DATA16_HEAP+_D #
#                            ATA16_HEAP_SIZE=1C00-2BFD                         #
#                            -Z(DATA)CSTACK+_STACK_SIZE#                       #
#                            -Z(CODE)INFO=1800-19FF -Z(CODE)INFOA=1980-19FF    #
#                            -Z(CODE)INFOB=1900-197F -Z(CODE)INFOC=1880-18FF   #
#                            -Z(CODE)INFOD=1800-187F                           #
#                            -Z(CONST)DATA16_C,DATA16_ID,DIFUNCT,CHECKSUM=8000 #
#                            -FF7F                                             #
#                            -Z(CODE)CSTART,ISR_CODE=8000-FF7F                 #
#                            -P(CODE)CODE=8000-FF7F -Z(CODE)INTVEC=FF80-FFFF   #
#                            -Z(CODE)RESET=FFFE-FFFF) -D_STACK_SIZE=100 -rt    #
#                            "C:\Program Files (x86)\ChronosSoftware\IAR Syste #
#                            ms\Embedded Workbench 5.4 Kickstart\430\LIB\DLIB\ #
#                            dl430xsfn.r43"                                    #
#                            -e_PrintfLarge=_Printf -e_ScanfLarge=_Scanf       #
#                            -D_DATA16_HEAP_SIZE=50 -s __program_start         #
#                            -D_DATA20_HEAP_SIZE=50                            #
#                                                                              #
#                           Copyright (C) 1987-2009 IAR Systems AB.            #
################################################################################





                ****************************************
                *                                      *
                *           CROSS REFERENCE            *
                *                                      *
                ****************************************

       Program entry at :           868E  Relocatable, from module : ?cstart




                ****************************************
                *                                      *
                *            RUNTIME MODEL             *
                *                                      *
                ****************************************

  __core                 = 430X
  __data_model           = small
  __dlib_file_descriptor = 0
  __double_size          = 32
  __pic                  = no
  __reg_r4               = free
  __reg_r5               = free
  __rt_version           = 3



                ****************************************
                *                                      *
                *              MODULE MAP              *
                *                                      *
                ****************************************


  DEFINED ABSOLUTE ENTRIES
    *************************************************************************

  DEFINED ABSOLUTE ENTRIES
  PROGRAM MODULE, NAME : ?ABS_ENTRY_MOD

Absolute parts
           ENTRY                   ADDRESS         REF BY
           =====                   =======         ======
           _DATA20_HEAP_SIZE       0050 
           _DATA16_HEAP_SIZE       0050 
           _STACK_SIZE             0100 
    *************************************************************************

  FILE NAME : C:\Program Files (x86)\ChronosSoftware\eZ430-Chronos\Software Projects\Chronos Watch\IAR\Sports Watch\868MHz - Limited IAR Kickstart (Europe)\Obj\acceleration.r43
  PROGRAM MODULE, NAME : acceleration

  SEGMENTS IN THE MODULE
  ======================
DATA16_Z
  Relative segment, address: 1C78 - 1C81 (0xa bytes), align: 1
  Segment part 3.             Intra module refs:   display_acceleration
                                                   do_acceleration_measurement
                                                   is_acceleration_measurement
                                                   reset_acceleration
                                                   sx_acceleration
           ENTRY                   ADDRESS         REF BY
           =====                   =======         ======
           sAccel                  1C78            TIMER0_A0_ISR (timer)
                                                   simpliciti_get_ed_data_callback (rfsimpliciti)
                                                   test_mode (test)
    -------------------------------------------------------------------------
DATA16_C
  Relative segment, address: 819E - 81A1 (0x4 bytes), align: 0
  Segment part 2.             Intra module refs:   display_acceleration
    -------------------------------------------------------------------------
DATA16_C
  Relative segment, address: 8000 - 800D (0xe bytes), align: 1
  Segment part 4.             Intra module refs:   convert_acceleration_value_to_mgrav
           ENTRY                   ADDRESS         REF BY
           =====                   =======         ======
           mgrav_per_bit           8000 
    -------------------------------------------------------------------------
<CODE> 1 (was CODE)
  Relative segment, address: FB9E - FBAB (0xe bytes), align: 1
  Segment part 11.
           ENTRY                   ADDRESS         REF BY
           =====                   =======         ======
           reset_acceleration      FB9E            init_global_variables (main)
               CSTACK = 00000000 ( 00000004 )
    -------------------------------------------------------------------------
<CODE> 1 (was CODE)
  Relative segment, address: F58C - F5A7 (0x1c bytes), align: 1
  Segment part 10.
           ENTRY                   ADDRESS         REF BY
           =====                   =======         ======
           sx_acceleration         F58C            menu_L1_Acceleration (menu)
               calls direct
               CSTACK = 00000000 ( 00000004 )
    -------------------------------------------------------------------------
<CODE> 1 (was CODE)
  Relative segment, address: FDCC - FDD5 (0xa bytes), align: 1
  Segment part 5.             Intra module refs:   convert_acceleration_value_to_mgrav
                                                   display_acceleration
           ENTRY                   ADDRESS         REF BY
           =====                   =======         ======
           acceleration_value_is_positive
                                   FDCC 
               CSTACK = 00000000 ( 00000004 )
    -------------------------------------------------------------------------
<CODE> 1 (was CODE)
  Relative segment, address: E2A2 - E2EB (0x4a bytes), align: 1
  Segment part 6.             Intra module refs:   display_acceleration
           ENTRY                   ADDRESS         REF BY
           =====                   =======         ======
           convert_acceleration_value_to_mgrav
                                   E2A2 
               calls direct
               CSTACK = 00000000 ( 00000010 )
    -------------------------------------------------------------------------
<CODE> 1 (was CODE)
  Relative segment, address: F738 - F74F (0x18 bytes), align: 1
  Segment part 7.             Intra module refs:   display_acceleration
           ENTRY                   ADDRESS         REF BY
           =====                   =======         ======
           is_acceleration_measurement
                                   F738            TIMER0_A0_ISR (timer)
               CSTACK = 00000000 ( 00000004 )
    -------------------------------------------------------------------------
<CODE> 1 (was CODE)
  Relative segment, address: FB28 - FB37 (0x10 bytes), align: 1
  Segment part 9.
           ENTRY                   ADDRESS         REF BY
           =====                   =======         ======
           do_acceleration_measurement
                                   FB28            process_requests (main)
               calls direct
               CSTACK = 00000000 ( 00000004 )
    -------------------------------------------------------------------------
<CODE> 1 (was CODE)
  Relative segment, address: A66E - A7C7 (0x15a bytes), align: 1
  Segment part 8.
           ENTRY                   ADDRESS         REF BY
           =====                   =======         ======
           display_acceleration    A66E            menu_L1_Acceleration (menu)
               calls direct
               CSTACK = 00000000 ( 00000010 )

    *************************************************************************

  FILE NAME : C:\Program Files (x86)\ChronosSoftware\eZ430-Chronos\Software Projects\Chronos Watch\IAR\Sports Watch\868MHz - Limited IAR Kickstart (Europe)\Obj\alarm.r43
  PROGRAM MODULE, NAME : alarm

  SEGMENTS IN THE MODULE
  ======================
DATA16_Z
  Relative segment, address: 1DA4 - 1DA7 (0x4 bytes), align: 0
  Segment part 2.             Intra module refs:   check_alarm
                                                   display_alarm
                                                   mx_alarm
                                                   reset_alarm
                                                   stop_alarm
                                                   sx_alarm
           ENTRY                   ADDRESS         REF BY
           =====                   =======         ======
           sAlarm                  1DA4            PORT2_ISR (ports)
                                                   TIMER0_A0_ISR (timer)
                                                   simpliciti_sync_decode_ap_cmd_callback (rfsimpliciti)
                                                   simpliciti_sync_get_data_callback (rfsimpliciti)
    -------------------------------------------------------------------------
<CODE> 1 (was CODE)
  Relative segment, address: F768 - F77F (0x18 bytes), align: 1
  Segment part 8.
           ENTRY                   ADDRESS         REF BY
           =====                   =======         ======
           reset_alarm             F768            init_global_variables (main)
               CSTACK = 00000000 ( 00000004 )
    -------------------------------------------------------------------------
<CODE> 1 (was CODE)
  Relative segment, address: F3E8 - F407 (0x20 bytes), align: 1
  Segment part 7.
           ENTRY                   ADDRESS         REF BY
           =====                   =======         ======
           check_alarm             F3E8            TIMER0_A0_ISR (timer)
               calls direct
               CSTACK = 00000000 ( 00000004 )
    -------------------------------------------------------------------------
<CODE> 1 (was CODE)
  Relative segment, address: FE4C - FE53 (0x8 bytes), align: 1
  Segment part 6.
           ENTRY                   ADDRESS         REF BY
           =====                   =======         ======
           stop_alarm              FE4C            PORT2_ISR (ports)
                                                   TIMER0_A0_ISR (timer)
               calls direct
               CSTACK = 00000000 ( 00000004 )
    -------------------------------------------------------------------------
<CODE> 1 (was CODE)
  Relative segment, address: EBBE - EBEF (0x32 bytes), align: 1
  Segment part 5.
           ENTRY                   ADDRESS         REF BY
           =====                   =======         ======
           sx_alarm                EBBE            menu_L1_Alarm (menu)
               CSTACK = 00000000 ( 00000004 )
    -------------------------------------------------------------------------
<CODE> 1 (was CODE)
  Relative segment, address: B608 - B6F9 (0xf2 bytes), align: 1
  Segment part 4.
           ENTRY                   ADDRESS         REF BY
           =====                   =======         ======
           mx_alarm                B608            menu_L1_Alarm (menu)
               calls direct
               CSTACK = 00000000 ( 0000001A )
    -------------------------------------------------------------------------
<CODE> 1 (was CODE)
  Relative segment, address: B8D0 - B9B5 (0xe6 bytes), align: 1
  Segment part 3.
           ENTRY                   ADDRESS         REF BY
           =====                   =======         ======
           display_alarm           B8D0            menu_L1_Alarm (menu)
               calls direct
               CSTACK = 00000000 ( 0000000C )

    *************************************************************************

  FILE NAME : C:\Program Files (x86)\ChronosSoftware\eZ430-Chronos\Software Projects\Chronos Watch\IAR\Sports Watch\868MHz - Limited IAR Kickstart (Europe)\Obj\altitude.r43
  PROGRAM MODULE, NAME : altitude

  SEGMENTS IN THE MODULE
  ======================
DATA16_AN
  Relative segment, address: 0200 - 0201 (0x2 bytes), align: 0
  Segment part 1. ROOT.       Intra module refs:   PORT2_ISR (ports)
                                                   TIMER0_A0_ISR (timer)
                                                   button_repeat_function (ports)
                                                   do_altitude_measurement
                                                   simpliciti_get_ed_data_callback (rfsimpliciti)
                                                   start_altitude_measurement
                                                   test_mode (test)
                                                   wakeup_event (main)
           ENTRY                   ADDRESS         REF BY
           =====                   =======         ======
           _A_PAIN_L               0200 
    -------------------------------------------------------------------------
DATA16_AN
  Relative segment, address: 021A - 021B (0x2 bytes), align: 0
  Segment part 2. ROOT.       Intra module refs:   PORT2_ISR (ports)
                                                   as_start (vti_as)
                                                   as_stop (vti_as)
                                                   init_buttons (ports)
                                                   start_altitude_measurement
                                                   stop_altitude_measurement
           ENTRY                   ADDRESS         REF BY
           =====                   =======         ======
           _A_PAIE_L               021A 
    -------------------------------------------------------------------------
DATA16_AN
  Relative segment, address: 021C - 021D (0x2 bytes), align: 0
  Segment part 3. ROOT.       Intra module refs:   PORT2_ISR (ports)
                                                   as_start (vti_as)
                                                   init_buttons (ports)
                                                   start_altitude_measurement
                                                   start_simpliciti_sync (rfsimpliciti)
                                                   start_simpliciti_tx_only (rfsimpliciti)
                                                   stop_altitude_measurement
                                                   sx_cinesync (cinesync)
           ENTRY                   ADDRESS         REF BY
           =====                   =======         ======
           _A_PAIFG_L              021C 
    -------------------------------------------------------------------------
DATA16_Z
  Relative segment, address: 1C82 - 1C8F (0xe bytes), align: 1
  Segment part 6.             Intra module refs:   display_altitude
                                                   do_altitude_measurement
                                                   is_altitude_measurement
                                                   mx_altitude
                                                   reset_altitude_measurement
                                                   start_altitude_measurement
                                                   stop_altitude_measurement
           ENTRY                   ADDRESS         REF BY
           =====                   =======         ======
           sAlt                    1C82            TIMER0_A0_ISR (timer)
                                                   read_calibration_values (main)
                                                   simpliciti_sync_decode_ap_cmd_callback (rfsimpliciti)
                                                   simpliciti_sync_get_data_callback (rfsimpliciti)
    -------------------------------------------------------------------------
<CODE> 1 (was CODE)
  Relative segment, address: E5A4 - E5E3 (0x40 bytes), align: 1
  Segment part 16.
           ENTRY                   ADDRESS         REF BY
           =====                   =======         ======
           reset_altitude_measurement
                                   E5A4            init_global_variables (main)
               calls direct
               CSTACK = 00000000 ( 00000004 )
    -------------------------------------------------------------------------
<CODE> 1 (was CODE)
  Relative segment, address: F5A8 - F5C3 (0x1c bytes), align: 1
  Segment part 8.             Intra module refs:   display_altitude
                                                   mx_altitude
           ENTRY                   ADDRESS         REF BY
           =====                   =======         ======
           convert_m_to_ft         F5A8 
               CSTACK = 00000000 ( 00000004 )
    -------------------------------------------------------------------------
<CODE> 1 (was CODE)
  Relative segment, address: F5C4 - F5DF (0x1c bytes), align: 1
  Segment part 12.            Intra module refs:   mx_altitude
           ENTRY                   ADDRESS         REF BY
           =====                   =======         ======
           convert_ft_to_m         F5C4 
               CSTACK = 00000000 ( 00000004 )
    -------------------------------------------------------------------------
<CODE> 1 (was CODE)
  Relative segment, address: F780 - F797 (0x18 bytes), align: 1
  Segment part 15.
           ENTRY                   ADDRESS         REF BY
           =====                   =======         ======
           is_altitude_measurement
                                   F780            TIMER0_A0_ISR (timer)
               CSTACK = 00000000 ( 00000004 )
    -------------------------------------------------------------------------
<CODE> 1 (was CODE)
  Relative segment, address: E624 - E663 (0x40 bytes), align: 1
  Segment part 10.            Intra module refs:   display_altitude
                                                   reset_altitude_measurement
           ENTRY                   ADDRESS         REF BY
           =====                   =======         ======
           start_altitude_measurement
                                   E624            start_simpliciti_sync (rfsimpliciti)
               calls direct
               CSTACK = 00000000 ( 00000004 )
    -------------------------------------------------------------------------
<CODE> 1 (was CODE)
  Relative segment, address: F554 - F56F (0x1c bytes), align: 1
  Segment part 7.             Intra module refs:   display_altitude
                                                   reset_altitude_measurement
           ENTRY                   ADDRESS         REF BY
           =====                   =======         ======
           stop_altitude_measurement
                                   F554            TIMER0_A0_ISR (timer)
                                                   start_simpliciti_sync (rfsimpliciti)
                                                   test_mode (test)
               calls direct
               CSTACK = 00000000 ( 00000004 )
    -------------------------------------------------------------------------
<CODE> 1 (was CODE)
  Relative segment, address: C4EE - C591 (0xa4 bytes), align: 1
  Segment part 9.             Intra module refs:   start_altitude_measurement
           ENTRY                   ADDRESS         REF BY
           =====                   =======         ======
           do_altitude_measurement
                                   C4EE            process_requests (main)
                                                   test_mode (test)
               calls direct
               CSTACK = 00000000 ( 00000010 )
    -------------------------------------------------------------------------
<CODE> 1 (was CODE)
  Relative segment, address: FEF4 - FEF5 (0x2 bytes), align: 1
  Segment part 14.
           ENTRY                   ADDRESS         REF BY
           =====                   =======         ======
           sx_altitude             FEF4            menu_L1_Altitude (menu)
               CSTACK = 00000000 ( 00000004 )
    -------------------------------------------------------------------------
<CODE> 1 (was CODE)
  Relative segment, address: BB7C - BC5B (0xe0 bytes), align: 1
  Segment part 13.
           ENTRY                   ADDRESS         REF BY
           =====                   =======         ======
           mx_altitude             BB7C            menu_L1_Altitude (menu)
               calls direct
               CSTACK = 00000000 ( 0000001E )
    -------------------------------------------------------------------------
<CODE> 1 (was CODE)
  Relative segment, address: A900 - AA33 (0x134 bytes), align: 1
  Segment part 11.
           ENTRY                   ADDRESS         REF BY
           =====                   =======         ======
           display_altitude        A900            menu_L1_Altitude (menu)
                                                   test_mode (test)
               calls direct
               CSTACK = 00000000 ( 00000008 )
    -------------------------------------------------------------------------
DATA16_C
  Relative segment, address: 81A2 - 81A5 (0x4 bytes), align: 0
  Segment part 5.             Intra module refs:   start_altitude_measurement

    *************************************************************************

  FILE NAME : C:\Program Files (x86)\ChronosSoftware\eZ430-Chronos\Software Projects\Chronos Watch\IAR\Sports Watch\868MHz - Limited IAR Kickstart (Europe)\Obj\battery.r43
  PROGRAM MODULE, NAME : battery

  SEGMENTS IN THE MODULE
  ======================
DATA16_Z
  Relative segment, address: 1C90 - 1C95 (0x6 bytes), align: 1
  Segment part 2.             Intra module refs:   battery_measurement
                                                   display_battery_V
                                                   reset_batt_measurement
           ENTRY                   ADDRESS         REF BY
           =====                   =======         ======
           sBatt                   1C90            TIMER0_A0_ISR (timer)
                                                   read_calibration_values (main)
    -------------------------------------------------------------------------
<CODE> 1 (was CODE)
  Relative segment, address: FA28 - FA39 (0x12 bytes), align: 1
  Segment part 5.
           ENTRY                   ADDRESS         REF BY
           =====                   =======         ======
           reset_batt_measurement
                                   FA28            init_global_variables (main)
               CSTACK = 00000000 ( 00000004 )
    -------------------------------------------------------------------------
<CODE> 1 (was CODE)
  Relative segment, address: D710 - D77B (0x6c bytes), align: 1
  Segment part 4.
           ENTRY                   ADDRESS         REF BY
           =====                   =======         ======
           battery_measurement     D710            init_global_variables (main)
                                                   process_requests (main)
               calls direct
               CSTACK = 00000000 ( 00000004 )
    -------------------------------------------------------------------------
<CODE> 1 (was CODE)
  Relative segment, address: D632 - D6A1 (0x70 bytes), align: 1
  Segment part 3.
           ENTRY                   ADDRESS         REF BY
           =====                   =======         ======
           display_battery_V       D632            menu_L2_Battery (menu)
               calls direct
               CSTACK = 00000000 ( 00000004 )

    *************************************************************************

  FILE NAME : C:\Program Files (x86)\ChronosSoftware\eZ430-Chronos\Software Projects\Chronos Watch\IAR\Sports Watch\868MHz - Limited IAR Kickstart (Europe)\Obj\bluerobin.r43
  PROGRAM MODULE, NAME : bluerobin

  SEGMENTS IN THE MODULE
  ======================
DATA16_Z
  Relative segment, address: 1C96 - 1CAD (0x18 bytes), align: 1
  Segment part 5.             Intra module refs:   display_caldist
                                                   display_calories
                                                   display_distance
                                                   display_heartrate
                                                   display_speed
                                                   get_bluerobin_data
                                                   is_bluerobin
                                                   is_bluerobin_searching
                                                   mx_caldist
                                                   reset_bluerobin
                                                   stop_bluerobin
                                                   sx_bluerobin
                                                   sx_caldist
           ENTRY                   ADDRESS         REF BY
           =====                   =======         ======
           sBlueRobin              1C96            radio_ISR (radio)
    -------------------------------------------------------------------------
DATA16_C
  Relative segment, address: 81A6 - 81A8 (0x3 bytes), align: 0
  Segment part 2.             Intra module refs:   mx_caldist
    -------------------------------------------------------------------------
DATA16_C
  Relative segment, address: 81A9 - 81AB (0x3 bytes), align: 0
  Segment part 3.             Intra module refs:   mx_caldist
    -------------------------------------------------------------------------
DATA16_C
  Relative segment, address: 81AC - 81AF (0x4 bytes), align: 0
  Segment part 4.             Intra module refs:   display_heartrate
    -------------------------------------------------------------------------
DATA16_C
  Relative segment, address: 81B0 - 81B7 (0x8 bytes), align: 0
  Segment part 6.             Intra module refs:   display_selection_User_Sex1
           ENTRY                   ADDRESS         REF BY
           =====                   =======         ======
           selection_User_Sex      81B0 
    -------------------------------------------------------------------------
<CODE> 1 (was CODE)
  Relative segment, address: EA16 - EA4D (0x38 bytes), align: 1
  Segment part 21.
           ENTRY                   ADDRESS         REF BY
           =====                   =======         ======
           reset_bluerobin         EA16            init_global_variables (main)
               CSTACK = 00000000 ( 00000004 )
    -------------------------------------------------------------------------
<CODE> 1 (was CODE)
  Relative segment, address: FE6E - FE73 (0x6 bytes), align: 1
  Segment part 20.
           ENTRY                   ADDRESS         REF BY
           =====                   =======         ======
           mx_bluerobin            FE6E            menu_L1_Heartrate (menu)
               CSTACK = 00000000 ( 00000004 )
    -------------------------------------------------------------------------
<CODE> 1 (was CODE)
  Relative segment, address: AEF0 - B003 (0x114 bytes), align: 1
  Segment part 19.
           ENTRY                   ADDRESS         REF BY
           =====                   =======         ======
           sx_bluerobin            AEF0            menu_L1_Heartrate (menu)
                                                   test_mode (test)
               calls direct
               CSTACK = 00000000 ( 00000006 )
    -------------------------------------------------------------------------
<CODE> 1 (was CODE)
  Relative segment, address: F538 - F553 (0x1c bytes), align: 1
  Segment part 18.            Intra module refs:   mx_caldist
           ENTRY                   ADDRESS         REF BY
           =====                   =======         ======
           display_selection_User_Sex1
                                   F538 
               calls direct
               CSTACK = 00000000 ( 00000008 )
    -------------------------------------------------------------------------
<CODE> 1 (was CODE)
  Relative segment, address: A048 - A229 (0x1e2 bytes), align: 1
  Segment part 17.
           ENTRY                   ADDRESS         REF BY
           =====                   =======         ======
           mx_caldist              A048            menu_L2_CalDist (menu)
               calls direct
               CSTACK = 00000000 ( 0000001E )
    -------------------------------------------------------------------------
<CODE> 1 (was CODE)
  Relative segment, address: F178 - F19D (0x26 bytes), align: 1
  Segment part 16.
           ENTRY                   ADDRESS         REF BY
           =====                   =======         ======
           sx_caldist              F178            menu_L2_CalDist (menu)
               calls direct
               CSTACK = 00000000 ( 00000006 )
    -------------------------------------------------------------------------
<CODE> 1 (was CODE)
  Relative segment, address: D8B0 - D915 (0x66 bytes), align: 1
  Segment part 15.
           ENTRY                   ADDRESS         REF BY
           =====                   =======         ======
           display_heartrate       D8B0            menu_L1_Heartrate (menu)
                                                   test_mode (test)
               calls direct
               CSTACK = 00000000 ( 00000006 )
    -------------------------------------------------------------------------
<CODE> 1 (was CODE)
  Relative segment, address: B9B6 - BA99 (0xe4 bytes), align: 1
  Segment part 14.
           ENTRY                   ADDRESS         REF BY
           =====                   =======         ======
           display_speed           B9B6            menu_L1_Speed (menu)
               calls direct
               CSTACK = 00000000 ( 00000006 )
    -------------------------------------------------------------------------
<CODE> 1 (was CODE)
  Relative segment, address: BA9A - BB7B (0xe2 bytes), align: 1
  Segment part 12.            Intra module refs:   display_caldist
           ENTRY                   ADDRESS         REF BY
           =====                   =======         ======
           display_distance        BA9A 
               calls direct
               CSTACK = 00000000 ( 0000000C )
    -------------------------------------------------------------------------
<CODE> 1 (was CODE)
  Relative segment, address: FB82 - FB8F (0xe bytes), align: 1
  Segment part 13.            Intra module refs:   sx_caldist
           ENTRY                   ADDRESS         REF BY
           =====                   =======         ======
           display_caldist         FB82            menu_L2_CalDist (menu)
               calls direct
               CSTACK = 00000000 ( 00000004 )
    -------------------------------------------------------------------------
<CODE> 1 (was CODE)
  Relative segment, address: DC12 - DC69 (0x58 bytes), align: 1
  Segment part 11.            Intra module refs:   display_caldist
           ENTRY                   ADDRESS         REF BY
           =====                   =======         ======
           display_calories        DC12 
               calls direct
               CSTACK = 00000000 ( 0000000C )
    -------------------------------------------------------------------------
<CODE> 1 (was CODE)
  Relative segment, address: FB58 - FB65 (0xe bytes), align: 1
  Segment part 10.            Intra module refs:   display_heartrate
           ENTRY                   ADDRESS         REF BY
           =====                   =======         ======
           is_bluerobin            FB58            TIMER0_A0_ISR (timer)
                                                   display_update (main)
                                                   sx_ppt (rfsimpliciti)
                                                   sx_rf (rfsimpliciti)
                                                   sx_rfbsl (rfbsl)
                                                   sx_sync (rfsimpliciti)
               CSTACK = 00000000 ( 00000004 )
    -------------------------------------------------------------------------
<CODE> 1 (was CODE)
  Relative segment, address: FB66 - FB73 (0xe bytes), align: 1
  Segment part 9.
           ENTRY                   ADDRESS         REF BY
           =====                   =======         ======
           is_bluerobin_searching
                                   FB66            TIMER0_A0_ISR (timer)
               CSTACK = 00000000 ( 00000004 )
    -------------------------------------------------------------------------
<CODE> 1 (was CODE)
  Relative segment, address: CEF8 - CF7D (0x86 bytes), align: 1
  Segment part 8.
           ENTRY                   ADDRESS         REF BY
           =====                   =======         ======
           get_bluerobin_data      CEF8            TIMER0_A0_ISR (timer)
                                                   test_mode (test)
               calls direct
               CSTACK = 00000000 ( 00000004 )
    -------------------------------------------------------------------------
<CODE> 1 (was CODE)
  Relative segment, address: E336 - E37F (0x4a bytes), align: 1
  Segment part 7.             Intra module refs:   get_bluerobin_data
                                                   sx_bluerobin
           ENTRY                   ADDRESS         REF BY
           =====                   =======         ======
           stop_bluerobin          E336            test_mode (test)
               calls direct
               CSTACK = 00000000 ( 00000004 )

    *************************************************************************

  FILE NAME : C:\Program Files (x86)\ChronosSoftware\eZ430-Chronos\Software Projects\Chronos Watch\IAR\Sports Watch\868MHz - Limited IAR Kickstart (Europe)\Obj\cinema.r43
  PROGRAM MODULE, NAME : cinema

  SEGMENTS IN THE MODULE
  ======================
DATA16_Z
  Relative segment, address: 1DA8 - 1DA8 (0x1 bytes), align: 0
  Segment part 2.             Intra module refs:   reset_cinema
           ENTRY                   ADDRESS         REF BY
           =====                   =======         ======
           cinemaDisplay           1DA8            sx_cinesync (cinesync)
    -------------------------------------------------------------------------
DATA16_Z
  Relative segment, address: 1DA9 - 1DA9 (0x1 bytes), align: 0
  Segment part 3.             Intra module refs:   display_cinema
                                                   gotoCurrentOut
                                                   reset_cinema
                                                   sx_cinema
           ENTRY                   ADDRESS         REF BY
           =====                   =======         ======
           outPos                  1DA9 
    -------------------------------------------------------------------------
DATA16_Z
  Relative segment, address: 1DAA - 1DAA (0x1 bytes), align: 0
  Segment part 4.             Intra module refs:   gotoCurrentOut
                                                   reset_cinema
                                                   sx_cinema
           ENTRY                   ADDRESS         REF BY
           =====                   =======         ======
           outAmount               1DAA            simpliciti_sync_decode_ap_cmd_callback (rfsimpliciti)
    -------------------------------------------------------------------------
DATA16_Z
  Relative segment, address: 1DAB - 1ED6 (0x12c bytes), align: 0
  Segment part 5.             Intra module refs:   display_cinema
                                                   gotoCurrentOut
           ENTRY                   ADDRESS         REF BY
           =====                   =======         ======
           outArray                1DAB            simpliciti_sync_decode_ap_cmd_callback (rfsimpliciti)
    -------------------------------------------------------------------------
<CODE> 1 (was CODE)
  Relative segment, address: FB90 - FB9D (0xe bytes), align: 1
  Segment part 10.
           ENTRY                   ADDRESS         REF BY
           =====                   =======         ======
           reset_cinema            FB90            init_global_variables (main)
               CSTACK = 00000000 ( 00000004 )
    -------------------------------------------------------------------------
<CODE> 1 (was CODE)
  Relative segment, address: F6A2 - F6BB (0x1a bytes), align: 1
  Segment part 9.
           ENTRY                   ADDRESS         REF BY
           =====                   =======         ======
           sx_cinema               F6A2            menu_L2_Cinema (menu)
               CSTACK = 00000000 ( 00000004 )
    -------------------------------------------------------------------------
<CODE> 1 (was CODE)
  Relative segment, address: F014 - F03D (0x2a bytes), align: 1
  Segment part 7.             Intra module refs:   mx_cinema
           ENTRY                   ADDRESS         REF BY
           =====                   =======         ======
           gotoCurrentOut          F014            check_alarm (alarm)
               CSTACK = 00000000 ( 00000004 )
    -------------------------------------------------------------------------
<CODE> 1 (was CODE)
  Relative segment, address: FEE0 - FEE3 (0x4 bytes), align: 1
  Segment part 8.
           ENTRY                   ADDRESS         REF BY
           =====                   =======         ======
           mx_cinema               FEE0            menu_L2_Cinema (menu)
               calls direct
               CSTACK = 00000000 ( 00000004 )
    -------------------------------------------------------------------------
<CODE> 1 (was CODE)
  Relative segment, address: D106 - D185 (0x80 bytes), align: 1
  Segment part 6.
           ENTRY                   ADDRESS         REF BY
           =====                   =======         ======
           display_cinema          D106            menu_L2_Cinema (menu)
               calls direct
               CSTACK = 00000000 ( 0000000C )

    *************************************************************************

  FILE NAME : C:\Program Files (x86)\ChronosSoftware\eZ430-Chronos\Software Projects\Chronos Watch\IAR\Sports Watch\868MHz - Limited IAR Kickstart (Europe)\Obj\cinesync.r43
  PROGRAM MODULE, NAME : cinesync

  SEGMENTS IN THE MODULE
  ======================
DATA16_Z
  Relative segment, address: 1ED7 - 1ED7 (0x1 bytes), align: 0
  Segment part 4.             Intra module refs:   display_cinesync
                                                   sx_cinesync
           ENTRY                   ADDRESS         REF BY
           =====                   =======         ======
           cinesyncDisplay         1ED7 
    -------------------------------------------------------------------------
DATA16_Z
  Relative segment, address: 1ED8 - 1ED9 (0x2 bytes), align: 0
  Segment part 5.             Intra module refs:   display_cinesync
           ENTRY                   ADDRESS         REF BY
           =====                   =======         ======
           cineDate                1ED8            simpliciti_sync_decode_ap_cmd_callback (rfsimpliciti)
    -------------------------------------------------------------------------
<CODE> 1 (was CODE)
  Relative segment, address: CE6E - CEF7 (0x8a bytes), align: 1
  Segment part 7.
           ENTRY                   ADDRESS         REF BY
           =====                   =======         ======
           sx_cinesync             CE6E            menu_L2_CineSync (menu)
               calls direct
               CSTACK = 00000000 ( 00000004 )
    -------------------------------------------------------------------------
<CODE> 1 (was CODE)
  Relative segment, address: D004 - D085 (0x82 bytes), align: 1
  Segment part 6.
           ENTRY                   ADDRESS         REF BY
           =====                   =======         ======
           display_cinesync        D004            menu_L2_CineSync (menu)
               calls direct
               CSTACK = 00000000 ( 00000008 )
    -------------------------------------------------------------------------
DATA16_C
  Relative segment, address: 81B8 - 81BE (0x7 bytes), align: 0
  Segment part 3.             Intra module refs:   display_cinesync

    *************************************************************************

  FILE NAME : C:\Program Files (x86)\ChronosSoftware\eZ430-Chronos\Software Projects\Chronos Watch\IAR\Sports Watch\868MHz - Limited IAR Kickstart (Europe)\Obj\clock.r43
  PROGRAM MODULE, NAME : clock

  SEGMENTS IN THE MODULE
  ======================
DATA16_Z
  Relative segment, address: 1CAE - 1CBB (0xe bytes), align: 1
  Segment part 2.             Intra module refs:   clock_tick
                                                   display_time
                                                   mx_time
                                                   reset_clock
                                                   sx_time
           ENTRY                   ADDRESS         REF BY
           =====                   =======         ======
           sTime                   1CAE            PORT2_ISR (ports)
                                                   TIMER0_A0_ISR (timer)
                                                   button_repeat_function (ports)
                                                   check_alarm (alarm)
                                                   gotoCurrentOut (cinema)
                                                   simpliciti_sync_decode_ap_cmd_callback (rfsimpliciti)
                                                   simpliciti_sync_get_data_callback (rfsimpliciti)
    -------------------------------------------------------------------------
DATA16_C
  Relative segment, address: 81BF - 81C6 (0x8 bytes), align: 0
  Segment part 3.             Intra module refs:   display_selection_Timeformat1
           ENTRY                   ADDRESS         REF BY
           =====                   =======         ======
           selection_Timeformat    81BF 
    -------------------------------------------------------------------------
<CODE> 1 (was CODE)
  Relative segment, address: F210 - F233 (0x24 bytes), align: 1
  Segment part 11.
           ENTRY                   ADDRESS         REF BY
           =====                   =======         ======
           reset_clock             F210            init_global_variables (main)
               CSTACK = 00000000 ( 00000004 )
    -------------------------------------------------------------------------
<CODE> 1 (was CODE)
  Relative segment, address: E12A - E175 (0x4c bytes), align: 1
  Segment part 10.
           ENTRY                   ADDRESS         REF BY
           =====                   =======         ======
           clock_tick              E12A            TIMER0_A0_ISR (timer)
               calls direct
               CSTACK = 00000000 ( 00000004 )
    -------------------------------------------------------------------------
<CODE> 1 (was CODE)
  Relative segment, address: F868 - F87D (0x16 bytes), align: 1
  Segment part 4.             Intra module refs:   display_time
           ENTRY                   ADDRESS         REF BY
           =====                   =======         ======
           convert_hour_to_12H_format
                                   F868            display_alarm (alarm)
                                                   display_hours1 (display)
               CSTACK = 00000000 ( 00000004 )
    -------------------------------------------------------------------------
<CODE> 1 (was CODE)
  Relative segment, address: FDB8 - FDC1 (0xa bytes), align: 1
  Segment part 9.
           ENTRY                   ADDRESS         REF BY
           =====                   =======         ======
           is_hour_am              FDB8            display_am_pm_symbol (display)
               CSTACK = 00000000 ( 00000004 )
    -------------------------------------------------------------------------
<CODE> 1 (was CODE)
  Relative segment, address: F570 - F58B (0x1c bytes), align: 1
  Segment part 8.             Intra module refs:   mx_time
           ENTRY                   ADDRESS         REF BY
           =====                   =======         ======
           display_selection_Timeformat1
                                   F570 
               calls direct
               CSTACK = 00000000 ( 00000008 )
    -------------------------------------------------------------------------
<CODE> 1 (was CODE)
  Relative segment, address: 9A6C - 9C65 (0x1fa bytes), align: 1
  Segment part 7.
           ENTRY                   ADDRESS         REF BY
           =====                   =======         ======
           mx_time                 9A6C            menu_L1_Time (menu)
               calls direct
               CSTACK = 00000000 ( 00000024 )
    -------------------------------------------------------------------------
<CODE> 1 (was CODE)
  Relative segment, address: FA16 - FA27 (0x12 bytes), align: 1
  Segment part 6.
           ENTRY                   ADDRESS         REF BY
           =====                   =======         ======
           sx_time                 FA16            menu_L1_Time (menu)
               CSTACK = 00000000 ( 00000004 )
    -------------------------------------------------------------------------
<CODE> 1 (was CODE)
  Relative segment, address: 9E58 - A047 (0x1f0 bytes), align: 1
  Segment part 5.
           ENTRY                   ADDRESS         REF BY
           =====                   =======         ======
           display_time            9E58            menu_L1_Time (menu)
                                                   simpliciti_get_ed_data_callback (rfsimpliciti)
                                                   start_simpliciti_tx_only (rfsimpliciti)
               calls direct
               CSTACK = 00000000 ( 0000000C )

    *************************************************************************

  FILE NAME : C:\Program Files (x86)\ChronosSoftware\eZ430-Chronos\Software Projects\Chronos Watch\IAR\Sports Watch\868MHz - Limited IAR Kickstart (Europe)\Obj\date.r43
  PROGRAM MODULE, NAME : date

  SEGMENTS IN THE MODULE
  ======================
DATA16_Z
  Relative segment, address: 1CBC - 1CC1 (0x6 bytes), align: 1
  Segment part 2.             Intra module refs:   add_day
                                                   display_date
                                                   mx_date
                                                   reset_date
                                                   sx_date
           ENTRY                   ADDRESS         REF BY
           =====                   =======         ======
           sDate                   1CBC            simpliciti_sync_decode_ap_cmd_callback (rfsimpliciti)
                                                   simpliciti_sync_get_data_callback (rfsimpliciti)
    -------------------------------------------------------------------------
<CODE> 1 (was CODE)
  Relative segment, address: F8D4 - F8E7 (0x14 bytes), align: 1
  Segment part 8.
           ENTRY                   ADDRESS         REF BY
           =====                   =======         ======
           reset_date              F8D4            init_global_variables (main)
               CSTACK = 00000000 ( 00000004 )
    -------------------------------------------------------------------------
<CODE> 1 (was CODE)
  Relative segment, address: D462 - D4D7 (0x76 bytes), align: 1
  Segment part 5.             Intra module refs:   add_day
                                                   mx_date
           ENTRY                   ADDRESS         REF BY
           =====                   =======         ======
           get_numberOfDays        D462 
               CSTACK = 00000000 ( 00000006 )
    -------------------------------------------------------------------------
<CODE> 1 (was CODE)
  Relative segment, address: EAEE - EB21 (0x34 bytes), align: 1
  Segment part 7.
           ENTRY                   ADDRESS         REF BY
           =====                   =======         ======
           add_day                 EAEE            clock_tick (clock)
               calls direct
               CSTACK = 00000000 ( 00000004 )
    -------------------------------------------------------------------------
<CODE> 1 (was CODE)
  Relative segment, address: 9C66 - 9E57 (0x1f2 bytes), align: 1
  Segment part 6.
           ENTRY                   ADDRESS         REF BY
           =====                   =======         ======
           mx_date                 9C66            menu_L2_Date (menu)
               calls direct
               CSTACK = 00000000 ( 0000002A )
    -------------------------------------------------------------------------
<CODE> 1 (was CODE)
  Relative segment, address: FAA6 - FAB7 (0x12 bytes), align: 1
  Segment part 4.
           ENTRY                   ADDRESS         REF BY
           =====                   =======         ======
           sx_date                 FAA6            menu_L2_Date (menu)
               CSTACK = 00000000 ( 00000004 )
    -------------------------------------------------------------------------
<CODE> 1 (was CODE)
  Relative segment, address: B512 - B607 (0xf6 bytes), align: 1
  Segment part 3.
           ENTRY                   ADDRESS         REF BY
           =====                   =======         ======
           display_date            B512            menu_L2_Date (menu)
               calls direct
               CSTACK = 00000000 ( 00000008 )

    *************************************************************************

  FILE NAME : C:\Program Files (x86)\ChronosSoftware\eZ430-Chronos\Software Projects\Chronos Watch\IAR\Sports Watch\868MHz - Limited IAR Kickstart (Europe)\Obj\main.r43
  PROGRAM MODULE, NAME : main

  SEGMENTS IN THE MODULE
  ======================
DATA16_AN
  Relative segment, address: 0202 - 0203 (0x2 bytes), align: 0
  Segment part 2. ROOT.       Intra module refs:   as_init (vti_as)
                                                   as_stop (vti_as)
                                                   init_application
                                                   init_buttons (ports)
                                                   stop_buzzer (buzzer)
                                                   toggle_buzzer (buzzer)
           ENTRY                   ADDRESS         REF BY
           =====                   =======         ======
           _A_PAOUT_L              0202 
    -------------------------------------------------------------------------
DATA16_AN
  Relative segment, address: 0204 - 0205 (0x2 bytes), align: 0
  Segment part 3. ROOT.       Intra module refs:   as_init (vti_as)
                                                   as_start (vti_as)
                                                   as_stop (vti_as)
                                                   init_application
                                                   init_buttons (ports)
                                                   ps_init (vti_ps)
           ENTRY                   ADDRESS         REF BY
           =====                   =======         ======
           _A_PADIR_L              0204 
    -------------------------------------------------------------------------
DATA16_AN
  Relative segment, address: 024A - 024B (0x2 bytes), align: 0
  Segment part 4. ROOT.       Intra module refs:   init_application
                                                   lcd_init (display)
           ENTRY                   ADDRESS         REF BY
           =====                   =======         ======
           _A_PCSEL_L              024A 
    -------------------------------------------------------------------------
DATA16_AN
  Relative segment, address: 01C0 - 01C1 (0x2 bytes), align: 0
  Segment part 5. ROOT.       Intra module refs:   init_application
           ENTRY                   ADDRESS         REF BY
           =====                   =======         ======
           _A_PMAPPWD_L            01C0 
    -------------------------------------------------------------------------
DATA16_AN
  Relative segment, address: 01C2 - 01C3 (0x2 bytes), align: 0
  Segment part 6. ROOT.       Intra module refs:   init_application
           ENTRY                   ADDRESS         REF BY
           =====                   =======         ======
           _A_PMAPCTL_L            01C2 
    -------------------------------------------------------------------------
DATA16_AN
  Relative segment, address: 01C8 - 01C9 (0x2 bytes), align: 0
  Segment part 7. ROOT.       Intra module refs:   init_application
           ENTRY                   ADDRESS         REF BY
           =====                   =======         ======
           _A_P1MAP01_L            01C8 
    -------------------------------------------------------------------------
DATA16_AN
  Relative segment, address: 01D0 - 01D1 (0x2 bytes), align: 0
  Segment part 8. ROOT.       Intra module refs:   init_application
           ENTRY                   ADDRESS         REF BY
           =====                   =======         ======
           _A_P2MAP01_L            01D0 
    -------------------------------------------------------------------------
DATA16_AN
  Relative segment, address: 0120 - 0121 (0x2 bytes), align: 0
  Segment part 9. ROOT.       Intra module refs:   SetVCore (bsp)
                                                   SetVCore (pmm)
                                                   SetVCoreDown (pmm)
                                                   SetVCoreUp (bsp)
                                                   SetVCoreUp (pmm)
                                                   init_application
           ENTRY                   ADDRESS         REF BY
           =====                   =======         ======
           _A_PMMCTL0_L            0120 
    -------------------------------------------------------------------------
DATA16_AN
  Relative segment, address: 0102 - 0103 (0x2 bytes), align: 0
  Segment part 10. ROOT.      Intra module refs:   Bsp_SetClocks (bsp)
                                                   init_application
           ENTRY                   ADDRESS         REF BY
           =====                   =======         ======
           _A_SFRIFG1_L            0102 
    -------------------------------------------------------------------------
DATA16_AN
  Relative segment, address: 0160 - 0161 (0x2 bytes), align: 0
  Segment part 11. ROOT.      Intra module refs:   Bsp_SetClocks (bsp)
                                                   init_application
           ENTRY                   ADDRESS         REF BY
           =====                   =======         ======
           _A_UCSCTL0_L            0160 
    -------------------------------------------------------------------------
DATA16_AN
  Relative segment, address: 0162 - 0163 (0x2 bytes), align: 0
  Segment part 12. ROOT.      Intra module refs:   Bsp_SetClocks (bsp)
                                                   init_application
           ENTRY                   ADDRESS         REF BY
           =====                   =======         ======
           _A_UCSCTL1_L            0162 
    -------------------------------------------------------------------------
DATA16_AN
  Relative segment, address: 0164 - 0165 (0x2 bytes), align: 0
  Segment part 13. ROOT.      Intra module refs:   Bsp_SetClocks (bsp)
                                                   init_application
           ENTRY                   ADDRESS         REF BY
           =====                   =======         ======
           _A_UCSCTL2_L            0164 
    -------------------------------------------------------------------------
DATA16_AN
  Relative segment, address: 0166 - 0167 (0x2 bytes), align: 0
  Segment part 14. ROOT.      Intra module refs:   Bsp_SetClocks (bsp)
                                                   init_application
           ENTRY                   ADDRESS         REF BY
           =====                   =======         ======
           _A_UCSCTL3_L            0166 
    -------------------------------------------------------------------------
DATA16_AN
  Relative segment, address: 0168 - 0169 (0x2 bytes), align: 0
  Segment part 15. ROOT.      Intra module refs:   Bsp_SetClocks (bsp)
                                                   init_application
           ENTRY                   ADDRESS         REF BY
           =====                   =======         ======
           _A_UCSCTL4_L            0168 
    -------------------------------------------------------------------------
DATA16_AN
  Relative segment, address: 016C - 016D (0x2 bytes), align: 0
  Segment part 16. ROOT.      Intra module refs:   init_application
           ENTRY                   ADDRESS         REF BY
           =====                   =======         ======
           _A_UCSCTL6_L            016C 
    -------------------------------------------------------------------------
DATA16_AN
  Relative segment, address: 016E - 016F (0x2 bytes), align: 0
  Segment part 17. ROOT.      Intra module refs:   Bsp_SetClocks (bsp)
                                                   init_application
           ENTRY                   ADDRESS         REF BY
           =====                   =======         ======
           _A_UCSCTL7_L            016E 
    -------------------------------------------------------------------------
DATA16_AN
  Relative segment, address: 015C - 015D (0x2 bytes), align: 0
  Segment part 18. ROOT.      Intra module refs:   Timer0_A4_Delay (timer)
                                                   __low_level_init (bsp)
                                                   idle_loop
                                                   init_application
                                                   simpliciti_get_ed_data_callback (rfsimpliciti)
                                                   simpliciti_link (main_ED_BM)
                                                   simpliciti_main_sync (main_ED_BM)
                                                   test_mode (test)
           ENTRY                   ADDRESS         REF BY
           =====                   =======         ======
           _A_WDTCTL_L             015C 
    -------------------------------------------------------------------------
DATA16_Z
  Relative segment, address: 1CC2 - 1CC3 (0x2 bytes), align: 1
  Segment part 25.            Intra module refs:   init_global_variables
                                                   main
                                                   wakeup_event
           ENTRY                   ADDRESS         REF BY
           =====                   =======         ======
           sys                     1CC2            PORT2_ISR (ports)
                                                   TIMER0_A0_ISR (timer)
                                                   TIMER0_A1_5_ISR (timer)
                                                   Timer0_A4_Delay (timer)
                                                   battery_measurement (battery)
                                                   button_repeat_off (ports)
                                                   button_repeat_on (ports)
                                                   display_alarm (alarm)
                                                   display_altitude (altitude)
                                                   display_date (date)
                                                   display_distance (bluerobin)
                                                   display_hours1 (display)
                                                   display_speed (bluerobin)
                                                   display_temperature (temperature)
                                                   display_time (clock)
                                                   mx_alarm (alarm)
                                                   mx_altitude (altitude)
                                                   mx_caldist (bluerobin)
                                                   mx_date (date)
                                                   mx_temperature (temperature)
                                                   mx_time (clock)
                                                   set_value (user)
                                                   simpliciti_sync_decode_ap_cmd_callback (rfsimpliciti)
                                                   simpliciti_sync_get_data_callback (rfsimpliciti)
                                                   sx_bluerobin (bluerobin)
                                                   sx_ppt (rfsimpliciti)
                                                   sx_rf (rfsimpliciti)
                                                   sx_rfbsl (rfbsl)
                                                   sx_sync (rfsimpliciti)
    -------------------------------------------------------------------------
DATA16_Z
  Relative segment, address: 1CC4 - 1CC5 (0x2 bytes), align: 1
  Segment part 26.            Intra module refs:   init_global_variables
                                                   main
                                                   process_requests
           ENTRY                   ADDRESS         REF BY
           =====                   =======         ======
           request                 1CC4            PORT2_ISR (ports)
                                                   TIMER0_A0_ISR (timer)
                                                   simpliciti_get_ed_data_callback (rfsimpliciti)
    -------------------------------------------------------------------------
DATA16_Z
  Relative segment, address: 1CC6 - 1CC7 (0x2 bytes), align: 1
  Segment part 27.            Intra module refs:   display_update
                                                   init_global_variables
                                                   wakeup_event
           ENTRY                   ADDRESS         REF BY
           =====                   =======         ======
           message                 1CC6            TIMER0_A0_ISR (timer)
                                                   sx_alarm (alarm)
    -------------------------------------------------------------------------
DATA16_Z
  Relative segment, address: 1EDA - 1EDA (0x1 bytes), align: 0
  Segment part 28.            Intra module refs:   read_calibration_values
           ENTRY                   ADDRESS         REF BY
           =====                   =======         ======
           rf_frequoffset          1EDA            BRRX_Init_v (BRRX_API)
                                                   MRFI_Init (mrfi)
                                                   sx_bluerobin (bluerobin)
    -------------------------------------------------------------------------
DATA16_Z
  Relative segment, address: 1CC8 - 1CCB (0x4 bytes), align: 1
  Segment part 29.            Intra module refs:   display_update
                                                   init_global_variables
                                                   wakeup_event
           ENTRY                   ADDRESS         REF BY
           =====                   =======         ======
           fptr_lcd_function_line1
                                   1CC8            clear_display_all (display)
                                                   start_simpliciti_sync (rfsimpliciti)
                                                   start_simpliciti_tx_only (rfsimpliciti)
    -------------------------------------------------------------------------
DATA16_Z
  Relative segment, address: 1CCC - 1CCF (0x4 bytes), align: 1
  Segment part 30.            Intra module refs:   display_update
                                                   init_global_variables
                                                   wakeup_event
           ENTRY                   ADDRESS         REF BY
           =====                   =======         ======
           fptr_lcd_function_line2
                                   1CCC            clear_display_all (display)
    -------------------------------------------------------------------------
<CODE> 1 (was CODE)
  Relative segment, address: EA84 - EAB9 (0x36 bytes), align: 1
  Segment part 39.
           ENTRY                   ADDRESS         REF BY
           =====                   =======         ======
           main                    EA84            Segment part 19 (?cstart)
               calls direct
               CSTACK = 00000000 ( 00000004 )
    -------------------------------------------------------------------------
<CODE> 1 (was CODE)
  Relative segment, address: C14C - C20D (0xc2 bytes), align: 1
  Segment part 38.            Intra module refs:   main
           ENTRY                   ADDRESS         REF BY
           =====                   =======         ======
           init_application        C14C 
               calls direct
               CSTACK = 00000000 ( 00000004 )
    -------------------------------------------------------------------------
<CODE> 1 (was CODE)
  Relative segment, address: D280 - D2F9 (0x7a bytes), align: 1
  Segment part 37.            Intra module refs:   main
           ENTRY                   ADDRESS         REF BY
           =====                   =======         ======
           init_global_variables   D280 
               calls direct
               CSTACK = 00000000 ( 00000004 )
    -------------------------------------------------------------------------
<CODE> 1 (was CODE)
  Relative segment, address: A7C8 - A8FF (0x138 bytes), align: 1
  Segment part 36.            Intra module refs:   main
           ENTRY                   ADDRESS         REF BY
           =====                   =======         ======
           wakeup_event            A7C8 
               calls direct and indirect
               CSTACK = 00000000 ( 00000004 )
    -------------------------------------------------------------------------
<CODE> 1 (was CODE)
  Relative segment, address: E3C8 - E40F (0x48 bytes), align: 1
  Segment part 35.            Intra module refs:   main
           ENTRY                   ADDRESS         REF BY
           =====                   =======         ======
           process_requests        E3C8 
               calls direct
               CSTACK = 00000000 ( 00000004 )
    -------------------------------------------------------------------------
<CODE> 1 (was CODE)
  Relative segment, address: A3A8 - A50B (0x164 bytes), align: 1
  Segment part 34.            Intra module refs:   main
           ENTRY                   ADDRESS         REF BY
           =====                   =======         ======
           display_update          A3A8 
               calls direct and indirect
               CSTACK = 00000000 ( 0000000E )
    -------------------------------------------------------------------------
<CODE> 1 (was CODE)
  Relative segment, address: FE1C - FE23 (0x8 bytes), align: 1
  Segment part 32.            Intra module refs:   idle_loop
           ENTRY                   ADDRESS         REF BY
           =====                   =======         ======
           to_lpm                  FE1C            Timer0_A4_Delay (timer)
               CSTACK = 00000000 ( 00000004 )
    -------------------------------------------------------------------------
<CODE> 1 (was CODE)
  Relative segment, address: FC76 - FC81 (0xc bytes), align: 1
  Segment part 33.            Intra module refs:   main
           ENTRY                   ADDRESS         REF BY
           =====                   =======         ======
           idle_loop               FC76            set_value (user)
               calls direct
               CSTACK = 00000000 ( 00000004 )
    -------------------------------------------------------------------------
<CODE> 1 (was CODE)
  Relative segment, address: C20E - C2CF (0xc2 bytes), align: 1
  Segment part 31.            Intra module refs:   init_global_variables
           ENTRY                   ADDRESS         REF BY
           =====                   =======         ======
           read_calibration_values
                                   C20E 
               CSTACK = 00000000 ( 00000012 )
    -------------------------------------------------------------------------
DATA16_C
  Relative segment, address: 81C7 - 81CD (0x7 bytes), align: 0
  Segment part 20.            Intra module refs:   display_update
    -------------------------------------------------------------------------
DATA16_C
  Relative segment, address: 81CE - 81D4 (0x7 bytes), align: 0
  Segment part 21.            Intra module refs:   display_update
    -------------------------------------------------------------------------
DATA16_C
  Relative segment, address: 81D5 - 81DB (0x7 bytes), align: 0
  Segment part 22.            Intra module refs:   display_update
    -------------------------------------------------------------------------
DATA16_C
  Relative segment, address: 81DC - 81E0 (0x5 bytes), align: 0
  Segment part 23.            Intra module refs:   display_update
    -------------------------------------------------------------------------
DATA16_C
  Relative segment, address: 81E1 - 81E5 (0x5 bytes), align: 0
  Segment part 24.            Intra module refs:   display_update

    *************************************************************************

  FILE NAME : C:\Program Files (x86)\ChronosSoftware\eZ430-Chronos\Software Projects\Chronos Watch\IAR\Sports Watch\868MHz - Limited IAR Kickstart (Europe)\Obj\menu.r43
  PROGRAM MODULE, NAME : menu

  SEGMENTS IN THE MODULE
  ======================
DATA16_Z
  Relative segment, address: 1CD0 - 1CD1 (0x2 bytes), align: 1
  Segment part 2.
           ENTRY                   ADDRESS         REF BY
           =====                   =======         ======
           ptrMenu_L1              1CD0            display_update (main)
                                                   init_global_variables (main)
                                                   wakeup_event (main)
    -------------------------------------------------------------------------
DATA16_Z
  Relative segment, address: 1CD2 - 1CD3 (0x2 bytes), align: 1
  Segment part 3.
           ENTRY                   ADDRESS         REF BY
           =====                   =======         ======
           ptrMenu_L2              1CD2            display_update (main)
                                                   init_global_variables (main)
                                                   is_stopwatch (stopwatch)
                                                   wakeup_event (main)
    -------------------------------------------------------------------------
<CODE> 1 (was CODE)
  Relative segment, address: FC82 - FC8D (0xc bytes), align: 1
  Segment part 27.            Intra module refs:   menu_L1_Altitude
                                                   menu_L1_Heartrate
                                                   menu_L1_Speed
                                                   menu_L1_Time
                                                   menu_L2_CalDist
                                                   menu_L2_CineSync
                                                   menu_L2_Cinema
                                                   menu_L2_Ppt
                                                   menu_L2_RFBSL
                                                   menu_L2_Rf
                                                   menu_L2_Sync
           ENTRY                   ADDRESS         REF BY
           =====                   =======         ======
           update_time             FC82 
               CSTACK = 00000000 ( 00000004 )
    -------------------------------------------------------------------------
<CODE> 1 (was CODE)
  Relative segment, address: FCCA - FCD5 (0xc bytes), align: 1
  Segment part 26.            Intra module refs:   menu_L2_Stopwatch
           ENTRY                   ADDRESS         REF BY
           =====                   =======         ======
           update_stopwatch        FCCA 
               CSTACK = 00000000 ( 00000004 )
    -------------------------------------------------------------------------
<CODE> 1 (was CODE)
  Relative segment, address: FCE2 - FCED (0xc bytes), align: 1
  Segment part 25.            Intra module refs:   menu_L2_Date
           ENTRY                   ADDRESS         REF BY
           =====                   =======         ======
           update_date             FCE2 
               CSTACK = 00000000 ( 00000004 )
    -------------------------------------------------------------------------
<CODE> 1 (was CODE)
  Relative segment, address: FCEE - FCF9 (0xc bytes), align: 1
  Segment part 24.            Intra module refs:   menu_L1_Alarm
           ENTRY                   ADDRESS         REF BY
           =====                   =======         ======
           update_alarm            FCEE 
               CSTACK = 00000000 ( 00000004 )
    -------------------------------------------------------------------------
<CODE> 1 (was CODE)
  Relative segment, address: FCFA - FD05 (0xc bytes), align: 1
  Segment part 23.            Intra module refs:   menu_L1_Temperature
           ENTRY                   ADDRESS         REF BY
           =====                   =======         ======
           update_temperature      FCFA 
               CSTACK = 00000000 ( 00000004 )
    -------------------------------------------------------------------------
<CODE> 1 (was CODE)
  Relative segment, address: FD06 - FD11 (0xc bytes), align: 1
  Segment part 22.            Intra module refs:   menu_L2_Battery
           ENTRY                   ADDRESS         REF BY
           =====                   =======         ======
           update_battery_voltage
                                   FD06 
               CSTACK = 00000000 ( 00000004 )
    -------------------------------------------------------------------------
<CODE> 1 (was CODE)
  Relative segment, address: FD12 - FD1D (0xc bytes), align: 1
  Segment part 21.            Intra module refs:   menu_L1_Acceleration
           ENTRY                   ADDRESS         REF BY
           =====                   =======         ======
           update_acceleration     FD12 
               CSTACK = 00000000 ( 00000004 )
    -------------------------------------------------------------------------
DATA16_C
  Relative segment, address: 800E - 801F (0x12 bytes), align: 1
  Segment part 4.             Intra module refs:   menu_L1_Acceleration
           ENTRY                   ADDRESS         REF BY
           =====                   =======         ======
           menu_L1_Time            800E            init_global_variables (main)
    -------------------------------------------------------------------------
DATA16_C
  Relative segment, address: 8020 - 8031 (0x12 bytes), align: 1
  Segment part 5.             Intra module refs:   menu_L1_Time
           ENTRY                   ADDRESS         REF BY
           =====                   =======         ======
           menu_L1_Alarm           8020 
    -------------------------------------------------------------------------
DATA16_C
  Relative segment, address: 8032 - 8043 (0x12 bytes), align: 1
  Segment part 6.             Intra module refs:   menu_L1_Alarm
           ENTRY                   ADDRESS         REF BY
           =====                   =======         ======
           menu_L1_Temperature     8032 
    -------------------------------------------------------------------------
DATA16_C
  Relative segment, address: 8044 - 8055 (0x12 bytes), align: 1
  Segment part 7.             Intra module refs:   menu_L1_Temperature
           ENTRY                   ADDRESS         REF BY
           =====                   =======         ======
           menu_L1_Altitude        8044 
    -------------------------------------------------------------------------
DATA16_C
  Relative segment, address: 8056 - 8067 (0x12 bytes), align: 1
  Segment part 8.             Intra module refs:   menu_L1_Altitude
           ENTRY                   ADDRESS         REF BY
           =====                   =======         ======
           menu_L1_Heartrate       8056 
    -------------------------------------------------------------------------
DATA16_C
  Relative segment, address: 8068 - 8079 (0x12 bytes), align: 1
  Segment part 9.             Intra module refs:   menu_L1_Heartrate
           ENTRY                   ADDRESS         REF BY
           =====                   =======         ======
           menu_L1_Speed           8068 
    -------------------------------------------------------------------------
DATA16_C
  Relative segment, address: 807A - 808B (0x12 bytes), align: 1
  Segment part 10.            Intra module refs:   menu_L1_Speed
           ENTRY                   ADDRESS         REF BY
           =====                   =======         ======
           menu_L1_Acceleration    807A 
    -------------------------------------------------------------------------
DATA16_C
  Relative segment, address: 808C - 809D (0x12 bytes), align: 1
  Segment part 11.            Intra module refs:   menu_L2_RFBSL
           ENTRY                   ADDRESS         REF BY
           =====                   =======         ======
           menu_L2_Date            808C 
    -------------------------------------------------------------------------
DATA16_C
  Relative segment, address: 809E - 80AF (0x12 bytes), align: 1
  Segment part 12.            Intra module refs:   menu_L2_Date
           ENTRY                   ADDRESS         REF BY
           =====                   =======         ======
           menu_L2_Cinema          809E            init_global_variables (main)
    -------------------------------------------------------------------------
DATA16_C
  Relative segment, address: 80B0 - 80C1 (0x12 bytes), align: 1
  Segment part 13.            Intra module refs:   menu_L2_Cinema
           ENTRY                   ADDRESS         REF BY
           =====                   =======         ======
           menu_L2_CineSync        80B0 
    -------------------------------------------------------------------------
DATA16_C
  Relative segment, address: 80C2 - 80D3 (0x12 bytes), align: 1
  Segment part 14.            Intra module refs:   menu_L2_CineSync
           ENTRY                   ADDRESS         REF BY
           =====                   =======         ======
           menu_L2_Stopwatch       80C2            is_stopwatch (stopwatch)
    -------------------------------------------------------------------------
DATA16_C
  Relative segment, address: 80D4 - 80E5 (0x12 bytes), align: 1
  Segment part 15.            Intra module refs:   menu_L2_Stopwatch
           ENTRY                   ADDRESS         REF BY
           =====                   =======         ======
           menu_L2_Battery         80D4 
    -------------------------------------------------------------------------
DATA16_C
  Relative segment, address: 80E6 - 80F7 (0x12 bytes), align: 1
  Segment part 16.            Intra module refs:   menu_L2_Battery
           ENTRY                   ADDRESS         REF BY
           =====                   =======         ======
           menu_L2_Rf              80E6 
    -------------------------------------------------------------------------
DATA16_C
  Relative segment, address: 80F8 - 8109 (0x12 bytes), align: 1
  Segment part 17.            Intra module refs:   menu_L2_Rf
           ENTRY                   ADDRESS         REF BY
           =====                   =======         ======
           menu_L2_Ppt             80F8 
    -------------------------------------------------------------------------
DATA16_C
  Relative segment, address: 810A - 811B (0x12 bytes), align: 1
  Segment part 18.            Intra module refs:   menu_L2_Ppt
           ENTRY                   ADDRESS         REF BY
           =====                   =======         ======
           menu_L2_Sync            810A 
    -------------------------------------------------------------------------
DATA16_C
  Relative segment, address: 811C - 812D (0x12 bytes), align: 1
  Segment part 19.            Intra module refs:   menu_L2_Sync
           ENTRY                   ADDRESS         REF BY
           =====                   =======         ======
           menu_L2_CalDist         811C 
    -------------------------------------------------------------------------
DATA16_C
  Relative segment, address: 812E - 813F (0x12 bytes), align: 1
  Segment part 20.            Intra module refs:   menu_L2_CalDist
           ENTRY                   ADDRESS         REF BY
           =====                   =======         ======
           menu_L2_RFBSL           812E 

    *************************************************************************

  FILE NAME : C:\Program Files (x86)\ChronosSoftware\eZ430-Chronos\Software Projects\Chronos Watch\IAR\Sports Watch\868MHz - Limited IAR Kickstart (Europe)\Obj\rfbsl.r43
  PROGRAM MODULE, NAME : rfbsl

  SEGMENTS IN THE MODULE
  ======================
<CODE> 1 (was CODE)
  Relative segment, address: E8FA - E933 (0x3a bytes), align: 1
  Segment part 5.
           ENTRY                   ADDRESS         REF BY
           =====                   =======         ======
           sx_rfbsl                E8FA            menu_L2_RFBSL (menu)
               calls direct and indirect
               CSTACK = 00000000 ( 00000004 )
    -------------------------------------------------------------------------
<CODE> 1 (was CODE)
  Relative segment, address: F8FC - F90F (0x14 bytes), align: 1
  Segment part 4.
           ENTRY                   ADDRESS         REF BY
           =====                   =======         ======
           display_rfbsl           F8FC            menu_L2_RFBSL (menu)
               calls direct
               CSTACK = 00000000 ( 00000004 )
    -------------------------------------------------------------------------
DATA16_C
  Relative segment, address: 81E6 - 81EA (0x5 bytes), align: 0
  Segment part 2.             Intra module refs:   sx_rfbsl
    -------------------------------------------------------------------------
DATA16_C
  Relative segment, address: 81EB - 81F1 (0x7 bytes), align: 0
  Segment part 3.             Intra module refs:   display_rfbsl

    *************************************************************************

  FILE NAME : C:\Program Files (x86)\ChronosSoftware\eZ430-Chronos\Software Projects\Chronos Watch\IAR\Sports Watch\868MHz - Limited IAR Kickstart (Europe)\Obj\rfsimpliciti.r43
  PROGRAM MODULE, NAME : rfsimpliciti

  SEGMENTS IN THE MODULE
  ======================
DATA16_Z
  Relative segment, address: 1CD4 - 1CD7 (0x4 bytes), align: 1
  Segment part 8.             Intra module refs:   is_rf
                                                   reset_rf
                                                   simpliciti_get_ed_data_callback
                                                   start_simpliciti_sync
                                                   start_simpliciti_tx_only
           ENTRY                   ADDRESS         REF BY
           =====                   =======         ======
           sRFsmpl                 1CD4            TIMER0_A0_ISR (timer)
                                                   sx_cinesync (cinesync)
    -------------------------------------------------------------------------
DATA16_Z
  Relative segment, address: 1EDB - 1EDB (0x1 bytes), align: 0
  Segment part 9.             Intra module refs:   simpliciti_get_ed_data_callback
                                                   simpliciti_sync_decode_ap_cmd_callback
           ENTRY                   ADDRESS         REF BY
           =====                   =======         ======
           simpliciti_flag         1EDB            PORT2_ISR (ports)
                                                   TIMER0_A0_ISR (timer)
                                                   simpliciti_link (main_ED_BM)
                                                   simpliciti_main_sync (main_ED_BM)
                                                   simpliciti_main_tx_only (main_ED_BM)
    -------------------------------------------------------------------------
DATA16_Z
  Relative segment, address: 1EDC - 1EFB (0x20 bytes), align: 0
  Segment part 10.            Intra module refs:   simpliciti_get_ed_data_callback
                                                   simpliciti_sync_decode_ap_cmd_callback
                                                   simpliciti_sync_get_data_callback
                                                   start_simpliciti_tx_only
           ENTRY                   ADDRESS         REF BY
           =====                   =======         ======
           simpliciti_data         1EDC            PORT2_ISR (ports)
                                                   Segment part 6 (main_ED_BM)
                                                   simpliciti_main_sync (main_ED_BM)
    -------------------------------------------------------------------------
DATA16_Z
  Relative segment, address: 1EFC - 1EFF (0x4 bytes), align: 0
  Segment part 11.
           ENTRY                   ADDRESS         REF BY
           =====                   =======         ======
           simpliciti_ed_address   1EFC            read_calibration_values (main)
                                                   simpliciti_link (main_ED_BM)
    -------------------------------------------------------------------------
DATA16_Z
  Relative segment, address: 1F00 - 1F00 (0x1 bytes), align: 0
  Segment part 12.            Intra module refs:   reset_rf
           ENTRY                   ADDRESS         REF BY
           =====                   =======         ======
           simpliciti_payload_length
                                   1F00 
    -------------------------------------------------------------------------
DATA16_Z
  Relative segment, address: 1F01 - 1F01 (0x1 bytes), align: 0
  Segment part 13.            Intra module refs:   simpliciti_sync_decode_ap_cmd_callback
           ENTRY                   ADDRESS         REF BY
           =====                   =======         ======
           simpliciti_reply_count
                                   1F01            simpliciti_main_sync (main_ED_BM)
    -------------------------------------------------------------------------
DATA16_Z
  Relative segment, address: 1F02 - 1F02 (0x1 bytes), align: 0
  Segment part 14.            Intra module refs:   simpliciti_sync_decode_ap_cmd_callback
                                                   simpliciti_sync_get_data_callback
           ENTRY                   ADDRESS         REF BY
           =====                   =======         ======
           burst_mode              1F02 
    -------------------------------------------------------------------------
DATA16_Z
  Relative segment, address: 1CD8 - 1CD9 (0x2 bytes), align: 1
  Segment part 15.            Intra module refs:   simpliciti_sync_decode_ap_cmd_callback
                                                   simpliciti_sync_get_data_callback
           ENTRY                   ADDRESS         REF BY
           =====                   =======         ======
           burst_start             1CD8 
    -------------------------------------------------------------------------
DATA16_Z
  Relative segment, address: 1CDA - 1CDB (0x2 bytes), align: 1
  Segment part 16.            Intra module refs:   simpliciti_sync_decode_ap_cmd_callback
           ENTRY                   ADDRESS         REF BY
           =====                   =======         ======
           burst_end               1CDA 
    -------------------------------------------------------------------------
DATA16_Z
  Relative segment, address: 1CDC - 1CED (0x12 bytes), align: 1
  Segment part 17.            Intra module refs:   simpliciti_sync_decode_ap_cmd_callback
                                                   simpliciti_sync_get_data_callback
           ENTRY                   ADDRESS         REF BY
           =====                   =======         ======
           burst_packet            1CDC 
    -------------------------------------------------------------------------
<CODE> 1 (was CODE)
  Relative segment, address: FDE0 - FDE9 (0xa bytes), align: 1
  Segment part 32.
           ENTRY                   ADDRESS         REF BY
           =====                   =======         ======
           reset_rf                FDE0            init_global_variables (main)
               CSTACK = 00000000 ( 00000004 )
    -------------------------------------------------------------------------
<CODE> 1 (was CODE)
  Relative segment, address: F750 - F767 (0x18 bytes), align: 1
  Segment part 31.
           ENTRY                   ADDRESS         REF BY
           =====                   =======         ======
           sx_rf                   F750            menu_L2_Rf (menu)
               calls direct
               CSTACK = 00000000 ( 00000004 )
    -------------------------------------------------------------------------
<CODE> 1 (was CODE)
  Relative segment, address: F720 - F737 (0x18 bytes), align: 1
  Segment part 30.
           ENTRY                   ADDRESS         REF BY
           =====                   =======         ======
           sx_ppt                  F720            menu_L2_Ppt (menu)
               calls direct
               CSTACK = 00000000 ( 00000004 )
    -------------------------------------------------------------------------
<CODE> 1 (was CODE)
  Relative segment, address: F83C - F851 (0x16 bytes), align: 1
  Segment part 29.
           ENTRY                   ADDRESS         REF BY
           =====                   =======         ======
           sx_sync                 F83C            menu_L2_Sync (menu)
               calls direct
               CSTACK = 00000000 ( 00000004 )
    -------------------------------------------------------------------------
<CODE> 1 (was CODE)
  Relative segment, address: BFB6 - C081 (0xcc bytes), align: 1
  Segment part 28.            Intra module refs:   sx_ppt
                                                   sx_rf
           ENTRY                   ADDRESS         REF BY
           =====                   =======         ======
           start_simpliciti_tx_only
                                   BFB6 
               calls direct and indirect
               CSTACK = 00000000 ( 00000006 )
    -------------------------------------------------------------------------
<CODE> 1 (was CODE)
  Relative segment, address: F910 - F923 (0x14 bytes), align: 1
  Segment part 27.
           ENTRY                   ADDRESS         REF BY
           =====                   =======         ======
           display_rf              F910            menu_L2_Rf (menu)
               calls direct
               CSTACK = 00000000 ( 00000004 )
    -------------------------------------------------------------------------
<CODE> 1 (was CODE)
  Relative segment, address: F8C0 - F8D3 (0x14 bytes), align: 1
  Segment part 26.
           ENTRY                   ADDRESS         REF BY
           =====                   =======         ======
           display_ppt             F8C0            menu_L2_Ppt (menu)
               calls direct
               CSTACK = 00000000 ( 00000004 )
    -------------------------------------------------------------------------
<CODE> 1 (was CODE)
  Relative segment, address: F960 - F973 (0x14 bytes), align: 1
  Segment part 25.
           ENTRY                   ADDRESS         REF BY
           =====                   =======         ======
           display_sync            F960            menu_L2_Sync (menu)
               calls direct
               CSTACK = 00000000 ( 00000004 )
    -------------------------------------------------------------------------
<CODE> 1 (was CODE)
  Relative segment, address: FBC8 - FBD5 (0xe bytes), align: 1
  Segment part 24.
           ENTRY                   ADDRESS         REF BY
           =====                   =======         ======
           is_rf                   FBC8            PORT2_ISR (ports)
                                                   TIMER0_A0_ISR (timer)
                                                   radio_ISR (radio)
                                                   sx_bluerobin (bluerobin)
                                                   sx_rfbsl (rfbsl)
               CSTACK = 00000000 ( 00000004 )
    -------------------------------------------------------------------------
<CODE> 1 (was CODE)
  Relative segment, address: C440 - C4ED (0xae bytes), align: 1
  Segment part 23.
           ENTRY                   ADDRESS         REF BY
           =====                   =======         ======
           simpliciti_get_ed_data_callback
                                   C440            simpliciti_main_tx_only (main_ED_BM)
               calls direct
               CSTACK = 00000000 ( 00000004 )
    -------------------------------------------------------------------------
DATA16_Z
  Relative segment, address: 1F03 - 1F03 (0x1 bytes), align: 0
  Segment part 19.            Intra module refs:   simpliciti_get_ed_data_callback
           LOCAL                   ADDRESS         
           =====                   =======         
           simpliciti_get_ed_data_callback::packet_counter
                                   1F03 
    -------------------------------------------------------------------------
<CODE> 1 (was CODE)
  Relative segment, address: C776 - C813 (0x9e bytes), align: 1
  Segment part 22.            Intra module refs:   sx_sync
           ENTRY                   ADDRESS         REF BY
           =====                   =======         ======
           start_simpliciti_sync   C776 
               calls direct and indirect
               CSTACK = 00000000 ( 00000004 )
    -------------------------------------------------------------------------
<CODE> 1 (was CODE)
  Relative segment, address: A22A - A3A7 (0x17e bytes), align: 1
  Segment part 21.
           ENTRY                   ADDRESS         REF BY
           =====                   =======         ======
           simpliciti_sync_decode_ap_cmd_callback
                                   A22A            simpliciti_main_sync (main_ED_BM)
               calls direct
               CSTACK = 00000000 ( 00000006 )
    -------------------------------------------------------------------------
<CODE> 1 (was CODE)
  Relative segment, address: C082 - C14B (0xca bytes), align: 1
  Segment part 20.
           ENTRY                   ADDRESS         REF BY
           =====                   =======         ======
           simpliciti_sync_get_data_callback
                                   C082            simpliciti_main_sync (main_ED_BM)
               CSTACK = 00000000 ( 00000004 )
    -------------------------------------------------------------------------
DATA16_C
  Relative segment, address: 81F2 - 81F6 (0x5 bytes), align: 0
  Segment part 5.             Intra module refs:   display_rf
    -------------------------------------------------------------------------
DATA16_C
  Relative segment, address: 81F7 - 81FD (0x7 bytes), align: 0
  Segment part 6.             Intra module refs:   display_ppt
    -------------------------------------------------------------------------
DATA16_C
  Relative segment, address: 81FE - 8204 (0x7 bytes), align: 0
  Segment part 7.             Intra module refs:   display_sync

    *************************************************************************

  FILE NAME : C:\Program Files (x86)\ChronosSoftware\eZ430-Chronos\Software Projects\Chronos Watch\IAR\Sports Watch\868MHz - Limited IAR Kickstart (Europe)\Obj\stopwatch.r43
  PROGRAM MODULE, NAME : stopwatch

  SEGMENTS IN THE MODULE
  ======================
DATA16_AN
  Relative segment, address: 0346 - 0347 (0x2 bytes), align: 0
  Segment part 1. ROOT.       Intra module refs:   TIMER0_A1_5_ISR (timer)
                                                   start_stopwatch
                                                   stop_stopwatch
           ENTRY                   ADDRESS         REF BY
           =====                   =======         ======
           _A_TA0CCTL2_L           0346 
    -------------------------------------------------------------------------
DATA16_AN
  Relative segment, address: 0350 - 0351 (0x2 bytes), align: 0
  Segment part 2. ROOT.       Intra module refs:   BRRX__GetCurrentTime_u16 (BRRX_Timer)
                                                   BlueRobin_RadioISR_v (BRRX_Radio)
                                                   TIMER0_A1_5_ISR (timer)
                                                   Timer0_A3_Start (timer)
                                                   Timer0_A4_Delay (timer)
                                                   Timer0_Stop (timer)
                                                   start_stopwatch
           ENTRY                   ADDRESS         REF BY
           =====                   =======         ======
           _A_TA0R_L               0350 
    -------------------------------------------------------------------------
DATA16_AN
  Relative segment, address: 0356 - 0357 (0x2 bytes), align: 0
  Segment part 3. ROOT.       Intra module refs:   start_stopwatch
                                                   update_stopwatch_timer
           ENTRY                   ADDRESS         REF BY
           =====                   =======         ======
           _A_TA0CCR2_L            0356 
    -------------------------------------------------------------------------
DATA16_Z
  Relative segment, address: 1F04 - 1F10 (0xd bytes), align: 0
  Segment part 6.             Intra module refs:   display_stopwatch
                                                   is_stopwatch
                                                   reset_stopwatch
                                                   start_stopwatch
                                                   stop_stopwatch
                                                   stopwatch_tick
                                                   sx_stopwatch
                                                   update_stopwatch_timer
           ENTRY                   ADDRESS         REF BY
           =====                   =======         ======
           sStopwatch              1F04            set_value (user)
    -------------------------------------------------------------------------
<CODE> 1 (was CODE)
  Relative segment, address: E75C - E797 (0x3c bytes), align: 1
  Segment part 10.            Intra module refs:   start_stopwatch
           ENTRY                   ADDRESS         REF BY
           =====                   =======         ======
           update_stopwatch_timer
                                   E75C            TIMER0_A1_5_ISR (timer)
               CSTACK = 00000000 ( 00000004 )
    -------------------------------------------------------------------------
<CODE> 1 (was CODE)
  Relative segment, address: B320 - B419 (0xfa bytes), align: 1
  Segment part 16.
           ENTRY                   ADDRESS         REF BY
           =====                   =======         ======
           stopwatch_tick          B320            TIMER0_A1_5_ISR (timer)
               calls direct
               CSTACK = 00000000 ( 00000004 )
    -------------------------------------------------------------------------
DATA16_Z
  Relative segment, address: 1F11 - 1F11 (0x1 bytes), align: 0
  Segment part 7.             Intra module refs:   stopwatch_tick
           LOCAL                   ADDRESS         
           =====                   =======         
           stopwatch_tick::delay   1F11 
    -------------------------------------------------------------------------
<CODE> 1 (was CODE)
  Relative segment, address: F388 - F3A7 (0x20 bytes), align: 1
  Segment part 13.            Intra module refs:   mx_stopwatch
                                                   stopwatch_tick
           ENTRY                   ADDRESS         REF BY
           =====                   =======         ======
           reset_stopwatch         F388            init_global_variables (main)
               calls direct
               CSTACK = 00000000 ( 00000004 )
    -------------------------------------------------------------------------
<CODE> 1 (was CODE)
  Relative segment, address: F6D6 - F6EF (0x1a bytes), align: 1
  Segment part 15.
           ENTRY                   ADDRESS         REF BY
           =====                   =======         ======
           is_stopwatch            F6D6            PORT2_ISR (ports)
                                                   Timer0_A4_Delay (timer)
               CSTACK = 00000000 ( 00000004 )
    -------------------------------------------------------------------------
<CODE> 1 (was CODE)
  Relative segment, address: F2E4 - F305 (0x22 bytes), align: 1
  Segment part 11.            Intra module refs:   sx_stopwatch
           ENTRY                   ADDRESS         REF BY
           =====                   =======         ======
           start_stopwatch         F2E4 
               calls direct
               CSTACK = 00000000 ( 00000004 )
    -------------------------------------------------------------------------
<CODE> 1 (was CODE)
  Relative segment, address: F634 - F64F (0x1c bytes), align: 1
  Segment part 9.             Intra module refs:   mx_stopwatch
                                                   sx_stopwatch
           ENTRY                   ADDRESS         REF BY
           =====                   =======         ======
           stop_stopwatch          F634            PORT2_ISR (ports)
               calls direct
               CSTACK = 00000000 ( 00000004 )
    -------------------------------------------------------------------------
<CODE> 1 (was CODE)
  Relative segment, address: F798 - F7AF (0x18 bytes), align: 1
  Segment part 14.
           ENTRY                   ADDRESS         REF BY
           =====                   =======         ======
           mx_stopwatch            F798            menu_L2_Stopwatch (menu)
               calls direct
               CSTACK = 00000000 ( 00000006 )
    -------------------------------------------------------------------------
<CODE> 1 (was CODE)
  Relative segment, address: F826 - F83B (0x16 bytes), align: 1
  Segment part 12.
           ENTRY                   ADDRESS         REF BY
           =====                   =======         ======
           sx_stopwatch            F826            menu_L2_Stopwatch (menu)
               calls direct
               CSTACK = 00000000 ( 00000004 )
    -------------------------------------------------------------------------
<CODE> 1 (was CODE)
  Relative segment, address: AA34 - AB65 (0x132 bytes), align: 1
  Segment part 8.             Intra module refs:   mx_stopwatch
                                                   stop_stopwatch
                                                   stopwatch_tick
           ENTRY                   ADDRESS         REF BY
           =====                   =======         ======
           display_stopwatch       AA34            Timer0_A4_Delay (timer)
                                                   menu_L2_Stopwatch (menu)
               calls direct
               CSTACK = 00000000 ( 00000004 )
    -------------------------------------------------------------------------
DATA16_C
  Relative segment, address: 8205 - 820D (0x9 bytes), align: 0
  Segment part 5.             Intra module refs:   reset_stopwatch

    *************************************************************************

  FILE NAME : C:\Program Files (x86)\ChronosSoftware\eZ430-Chronos\Software Projects\Chronos Watch\IAR\Sports Watch\868MHz - Limited IAR Kickstart (Europe)\Obj\temperature.r43
  PROGRAM MODULE, NAME : temperature

  SEGMENTS IN THE MODULE
  ======================
DATA16_Z
  Relative segment, address: 1CEE - 1CF3 (0x6 bytes), align: 1
  Segment part 2.             Intra module refs:   display_temperature
                                                   is_temp_measurement
                                                   mx_temperature
                                                   reset_temp_measurement
                                                   temperature_measurement
           ENTRY                   ADDRESS         REF BY
           =====                   =======         ======
           sTemp                   1CEE            read_calibration_values (main)
                                                   simpliciti_sync_decode_ap_cmd_callback (rfsimpliciti)
                                                   simpliciti_sync_get_data_callback (rfsimpliciti)
    -------------------------------------------------------------------------
<CODE> 1 (was CODE)
  Relative segment, address: FDAE - FDB7 (0xa bytes), align: 1
  Segment part 9.
           ENTRY                   ADDRESS         REF BY
           =====                   =======         ======
           reset_temp_measurement
                                   FDAE            init_global_variables (main)
               calls direct
               CSTACK = 00000000 ( 00000004 )
    -------------------------------------------------------------------------
<CODE> 1 (was CODE)
  Relative segment, address: CBA6 - CC37 (0x92 bytes), align: 1
  Segment part 4.             Intra module refs:   display_temperature
                                                   reset_temp_measurement
           ENTRY                   ADDRESS         REF BY
           =====                   =======         ======
           temperature_measurement
                                   CBA6            process_requests (main)
                                                   start_simpliciti_sync (rfsimpliciti)
                                                   test_mode (test)
               calls direct
               CSTACK = 00000000 ( 0000000A )
    -------------------------------------------------------------------------
<CODE> 1 (was CODE)
  Relative segment, address: F106 - F12B (0x26 bytes), align: 1
  Segment part 3.             Intra module refs:   display_temperature
                                                   mx_temperature
           ENTRY                   ADDRESS         REF BY
           =====                   =======         ======
           convert_C_to_F          F106 
               CSTACK = 00000000 ( 00000004 )
    -------------------------------------------------------------------------
<CODE> 1 (was CODE)
  Relative segment, address: FA94 - FAA5 (0x12 bytes), align: 1
  Segment part 6.             Intra module refs:   mx_temperature
           ENTRY                   ADDRESS         REF BY
           =====                   =======         ======
           convert_F_to_C          FA94 
               CSTACK = 00000000 ( 00000004 )
    -------------------------------------------------------------------------
<CODE> 1 (was CODE)
  Relative segment, address: FC1C - FC29 (0xe bytes), align: 1
  Segment part 8.
           ENTRY                   ADDRESS         REF BY
           =====                   =======         ======
           is_temp_measurement     FC1C            TIMER0_A0_ISR (timer)
               CSTACK = 00000000 ( 00000004 )
    -------------------------------------------------------------------------
<CODE> 1 (was CODE)
  Relative segment, address: B41A - B511 (0xf8 bytes), align: 1
  Segment part 7.
           ENTRY                   ADDRESS         REF BY
           =====                   =======         ======
           mx_temperature          B41A            menu_L1_Temperature (menu)
               calls direct
               CSTACK = 00000000 ( 0000001C )
    -------------------------------------------------------------------------
<CODE> 1 (was CODE)
  Relative segment, address: B6FA - B7E9 (0xf0 bytes), align: 1
  Segment part 5.
           ENTRY                   ADDRESS         REF BY
           =====                   =======         ======
           display_temperature     B6FA            menu_L1_Temperature (menu)
                                                   test_mode (test)
               calls direct
               CSTACK = 00000000 ( 00000006 )

    *************************************************************************

  FILE NAME : C:\Program Files (x86)\ChronosSoftware\eZ430-Chronos\Software Projects\Chronos Watch\IAR\Sports Watch\868MHz - Limited IAR Kickstart (Europe)\Obj\test.r43
  PROGRAM MODULE, NAME : test

  SEGMENTS IN THE MODULE
  ======================
DATA16_AN
  Relative segment, address: 0A00 - 0A01 (0x2 bytes), align: 0
  Segment part 1. ROOT.       Intra module refs:   lcd_init (display)
                                                   test_mode
           ENTRY                   ADDRESS         REF BY
           =====                   =======         ======
           _A_LCDBCTL0_L           0A00 
    -------------------------------------------------------------------------
DATA16_AN
  Relative segment, address: 0A08 - 0A09 (0x2 bytes), align: 0
  Segment part 2. ROOT.       Intra module refs:   test_mode
           ENTRY                   ADDRESS         REF BY
           =====                   =======         ======
           _A_LCDBVCTL_L           0A08 
    -------------------------------------------------------------------------
<CODE> 1 (was CODE)
  Relative segment, address: 961E - 986B (0x24e bytes), align: 1
  Segment part 10.
           ENTRY                   ADDRESS         REF BY
           =====                   =======         ======
           test_mode               961E            main (main)
               calls direct
               CSTACK = 00000000 ( 0000000C )
    -------------------------------------------------------------------------
<CODE> 1 (was CODE)
  Relative segment, address: F7F8 - F80F (0x18 bytes), align: 1
  Segment part 9.             Intra module refs:   test_mode
           ENTRY                   ADDRESS         REF BY
           =====                   =======         ======
           display_all_on          F7F8 
               CSTACK = 00000000 ( 00000004 )
    -------------------------------------------------------------------------
<CODE> 1 (was CODE)
  Relative segment, address: F7E0 - F7F7 (0x18 bytes), align: 1
  Segment part 8.             Intra module refs:   test_mode
           ENTRY                   ADDRESS         REF BY
           =====                   =======         ======
           display_all_off         F7E0 
               CSTACK = 00000000 ( 00000004 )
    -------------------------------------------------------------------------
DATA16_C
  Relative segment, address: 820E - 8212 (0x5 bytes), align: 0
  Segment part 6.             Intra module refs:   test_mode
    -------------------------------------------------------------------------
DATA16_C
  Relative segment, address: 8213 - 8218 (0x6 bytes), align: 0
  Segment part 7.             Intra module refs:   test_mode

    *************************************************************************

  FILE NAME : C:\Program Files (x86)\ChronosSoftware\eZ430-Chronos\Software Projects\Chronos Watch\IAR\Sports Watch\868MHz - Limited IAR Kickstart (Europe)\Obj\user.r43
  PROGRAM MODULE, NAME : user

  SEGMENTS IN THE MODULE
  ======================
<CODE> 1 (was CODE)
  Relative segment, address: FEF0 - FEF1 (0x2 bytes), align: 1
  Segment part 3.
           ENTRY                   ADDRESS         REF BY
           =====                   =======         ======
           dummy                   FEF0            menu_L1_Acceleration (menu)
                                                   menu_L1_Speed (menu)
                                                   menu_L1_Temperature (menu)
                                                   menu_L2_Battery (menu)
                                                   menu_L2_CineSync (menu)
                                                   menu_L2_Ppt (menu)
                                                   menu_L2_RFBSL (menu)
                                                   menu_L2_Rf (menu)
                                                   menu_L2_Sync (menu)
               CSTACK = 00000000 ( 00000004 )
    -------------------------------------------------------------------------
<CODE> 1 (was CODE)
  Relative segment, address: 986C - 9A6B (0x200 bytes), align: 1
  Segment part 2.
           ENTRY                   ADDRESS         REF BY
           =====                   =======         ======
           set_value               986C            mx_alarm (alarm)
                                                   mx_altitude (altitude)
                                                   mx_caldist (bluerobin)
                                                   mx_date (date)
                                                   mx_temperature (temperature)
                                                   mx_time (clock)
               calls direct and indirect
               CSTACK = 00000000 ( 0000001C )

    *************************************************************************

  FILE NAME : C:\Program Files (x86)\ChronosSoftware\eZ430-Chronos\Software Projects\Chronos Watch\IAR\Sports Watch\bluerobin\BlueRobin_RX_868MHz.r43
  LIBRARY MODULE, NAME : BRRX_API

  SEGMENTS IN THE MODULE
  ======================
<CODE> 1 (was CODE)
  Relative segment, address: E96E - E9A5 (0x38 bytes), align: 1
  Segment part 22.
           ENTRY                   ADDRESS         REF BY
           =====                   =======         ======
           BRRX_Init_v             E96E            sx_bluerobin (bluerobin)
               calls direct
               CSTACK = 00000000 ( 00000004 )
    -------------------------------------------------------------------------
<CODE> 1 (was CODE)
  Relative segment, address: D7E4 - D849 (0x66 bytes), align: 1
  Segment part 18.            Intra module refs:   BRRX_Init_v
                                                   BRRX_Stop_v
           LOCAL                   ADDRESS         
           =====                   =======         
           ResetTXCB_v             D7E4 
               CSTACK = 00000000 ( 00000008 )
    -------------------------------------------------------------------------
<CODE> 1 (was CODE)
  Relative segment, address: DC6A - DCC1 (0x58 bytes), align: 1
  Segment part 20.
           ENTRY                   ADDRESS         REF BY
           =====                   =======         ======
           BRRX_Start_v            DC6A            sx_bluerobin (bluerobin)
               calls direct
               CSTACK = 00000000 ( 00000008 )
    -------------------------------------------------------------------------
<CODE> 1 (was CODE)
  Relative segment, address: FE98 - FE9D (0x6 bytes), align: 1
  Segment part 19.
           ENTRY                   ADDRESS         REF BY
           =====                   =======         ======
           BRRX_Stop_v             FE98            stop_bluerobin (bluerobin)
               calls direct
               CSTACK = 00000000 ( 00000004 )
    -------------------------------------------------------------------------
<CODE> 1 (was CODE)
  Relative segment, address: E886 - E8BF (0x3a bytes), align: 1
  Segment part 17.
           ENTRY                   ADDRESS         REF BY
           =====                   =======         ======
           BRRX_SetID_v            E886            sx_bluerobin (bluerobin)
               CSTACK = 00000000 ( 00000006 )
    -------------------------------------------------------------------------
<CODE> 1 (was CODE)
  Relative segment, address: F19E - F1C3 (0x26 bytes), align: 1
  Segment part 16.
           ENTRY                   ADDRESS         REF BY
           =====                   =======         ======
           BRRX_GetID_u32          F19E            sx_bluerobin (bluerobin)
               CSTACK = 00000000 ( 00000004 )
    -------------------------------------------------------------------------
<CODE> 1 (was CODE)
  Relative segment, address: F27C - F29F (0x24 bytes), align: 1
  Segment part 8.             Intra module refs:   BRRX_Start_v
                                                   BRRX__NewInfo_v
           ENTRY                   ADDRESS         REF BY
           =====                   =======         ======
           BRRX_GetState_t         F27C            get_bluerobin_data (bluerobin)
                                                   sx_bluerobin (bluerobin)
               CSTACK = 00000000 ( 00000004 )
    -------------------------------------------------------------------------
<CODE> 1 (was CODE)
  Relative segment, address: FE34 - FE3B (0x8 bytes), align: 1
  Segment part 13.
           ENTRY                   ADDRESS         REF BY
           =====                   =======         ======
           BRRX_SetSignalLevelReduction_v
                                   FE34            sx_bluerobin (bluerobin)
               CSTACK = 00000000 ( 00000004 )
    -------------------------------------------------------------------------
<CODE> 1 (was CODE)
  Relative segment, address: FE7A - FE7F (0x6 bytes), align: 1
  Segment part 12.
           ENTRY                   ADDRESS         REF BY
           =====                   =======         ======
           BRRX_SetSearchTimeout_v
                                   FE7A            sx_bluerobin (bluerobin)
               CSTACK = 00000000 ( 00000004 )
    -------------------------------------------------------------------------
<CODE> 1 (was CODE)
  Relative segment, address: FE62 - FE67 (0x6 bytes), align: 1
  Segment part 10.
           ENTRY                   ADDRESS         REF BY
           =====                   =======         ======
           BRRX_SetPowerdownDelay_v
                                   FE62            sx_bluerobin (bluerobin)
               CSTACK = 00000000 ( 00000004 )
    -------------------------------------------------------------------------
DATA16_Z
  Relative segment, address: 1F12 - 1F12 (0x1 bytes), align: 0
  Segment part 2.             Intra module refs:   BRRX_GetHeartRate_u8
                                                   BRRX__NewInfo_v
    -------------------------------------------------------------------------
DATA16_Z
  Relative segment, address: 1F13 - 1F13 (0x1 bytes), align: 0
  Segment part 3.             Intra module refs:   BRRX_GetSpeed_u8
                                                   BRRX__NewInfo_v
    -------------------------------------------------------------------------
DATA16_Z
  Relative segment, address: 1CF4 - 1CF5 (0x2 bytes), align: 1
  Segment part 4.             Intra module refs:   BRRX_GetDistance_u16
                                                   BRRX__NewInfo_v
    -------------------------------------------------------------------------
<CODE> 1 (was CODE)
  Relative segment, address: E6A4 - E6E1 (0x3e bytes), align: 1
  Segment part 9.
           ENTRY                   ADDRESS         REF BY
           =====                   =======         ======
           BRRX__NewInfo_v         E6A4            BRRX__Scheduler_v (BRRX_Scheduler)
                                                   GetData_v (BRRX_Scheduler)
               calls direct
               CSTACK = 00000000 ( 00000004 )
    -------------------------------------------------------------------------
<CODE> 1 (was CODE)
  Relative segment, address: FE5C - FE61 (0x6 bytes), align: 1
  Segment part 7.
           ENTRY                   ADDRESS         REF BY
           =====                   =======         ======
           BRRX_GetHeartRate_u8    FE5C            get_bluerobin_data (bluerobin)
               CSTACK = 00000000 ( 00000004 )
    -------------------------------------------------------------------------
<CODE> 1 (was CODE)
  Relative segment, address: F408 - F427 (0x20 bytes), align: 1
  Segment part 6.
           ENTRY                   ADDRESS         REF BY
           =====                   =======         ======
           BRRX_GetSpeed_u8        F408            get_bluerobin_data (bluerobin)
               CSTACK = 00000000 ( 00000004 )
    -------------------------------------------------------------------------
<CODE> 1 (was CODE)
  Relative segment, address: F3A8 - F3C7 (0x20 bytes), align: 1
  Segment part 5.
           ENTRY                   ADDRESS         REF BY
           =====                   =======         ======
           BRRX_GetDistance_u16    F3A8            get_bluerobin_data (bluerobin)
               CSTACK = 00000000 ( 00000004 )

    -------------------------------------------------------------------------
  LIBRARY MODULE, NAME : BRRX_Packet

  SEGMENTS IN THE MODULE
  ======================
DATA16_Z
  Relative segment, address: 1F14 - 1F14 (0x1 bytes), align: 0
  Segment part 2.             Intra module refs:   BRRX__DecodePacket_u8
           ENTRY                   ADDRESS         REF BY
           =====                   =======         ======
           BRRX__StatusFlags_t     1F14            BRRX_RadioReceive_v (BRRX_Radio)
                                                   BRRX_Start_v (BRRX_API)
                                                   BRRX_TimerTask_v (BRRX_Timer)
                                                   BRRX__Scheduler_v (BRRX_Scheduler)
                                                   BRRX__StartNewSearch_v (BRRX_Scheduler)
                                                   GetData_v (BRRX_Scheduler)
    -------------------------------------------------------------------------
DATA16_Z
  Relative segment, address: 1CF6 - 1CF7 (0x2 bytes), align: 1
  Segment part 3.
           ENTRY                   ADDRESS         REF BY
           =====                   =======         ======
           BRRX__CurrentPacketTime_u16
                                   1CF6            BRRX_PacketEndTimerTask_v (BRRX_Radio)
                                                   BRRX__Scheduler_v (BRRX_Scheduler)
                                                   GetData_v (BRRX_Scheduler)
    -------------------------------------------------------------------------
DATA16_Z
  Relative segment, address: 1F15 - 1F15 (0x1 bytes), align: 0
  Segment part 4.
           ENTRY                   ADDRESS         REF BY
           =====                   =======         ======
           BRRX__CurrentSignalLevel_u8
                                   1F15            BRRX_PacketEndTimerTask_v (BRRX_Radio)
                                                   BRRX__Scheduler_v (BRRX_Scheduler)
                                                   GetData_v (BRRX_Scheduler)
    -------------------------------------------------------------------------
<CODE> 1 (was CODE)
  Relative segment, address: F152 - F177 (0x26 bytes), align: 1
  Segment part 5.
           ENTRY                   ADDRESS         REF BY
           =====                   =======         ======
           BRRX__DecodePacket_u8   F152            BRRX_PacketEndTimerTask_v (BRRX_Radio)
               calls direct
               CSTACK = 00000000 ( 00000004 )

    -------------------------------------------------------------------------
  LIBRARY MODULE, NAME : BRRX_Radio

  SEGMENTS IN THE MODULE
  ======================
DATA16_AN
  Relative segment, address: 0F32 - 0F33 (0x2 bytes), align: 0
  Segment part 1. ROOT.       Intra module refs:   BRRX_PacketEndTimerTask_v
                                                   BRRX_RadioInit_v
                                                   BRRX_RadioReceive_v
                                                   BRRX_RadioStop_v
                                                   MRFI_RadioIsr (mrfi)
                                                   MRFI_Transmit (mrfi)
                                                   Mrfi_RxModeOff (mrfi)
                                                   Mrfi_RxModeOn (mrfi)
                                                   close_radio (radio)
                                                   open_radio (radio)
           ENTRY                   ADDRESS         REF BY
           =====                   =======         ======
           _A_RF1AIFG_L            0F32 
    -------------------------------------------------------------------------
DATA16_AN
  Relative segment, address: 0F34 - 0F35 (0x2 bytes), align: 0
  Segment part 2. ROOT.       Intra module refs:   BRRX_RadioInit_v
                                                   MRFI_Init (mrfi)
           ENTRY                   ADDRESS         REF BY
           =====                   =======         ======
           _A_RF1AIES_L            0F34 
    -------------------------------------------------------------------------
DATA16_AN
  Relative segment, address: 0F36 - 0F37 (0x2 bytes), align: 0
  Segment part 3. ROOT.       Intra module refs:   BRRX_PacketEndTimerTask_v
                                                   BRRX_RadioReceive_v
                                                   BRRX_RadioStop_v
                                                   MRFI_RadioIsr (mrfi)
                                                   Mrfi_RxModeOff (mrfi)
                                                   Mrfi_RxModeOn (mrfi)
                                                   close_radio (radio)
                                                   open_radio (radio)
           ENTRY                   ADDRESS         REF BY
           =====                   =======         ======
           _A_RF1AIE_L             0F36 
    -------------------------------------------------------------------------
DATA16_C
  Relative segment, address: 8219 - 823F (0x27 bytes), align: 0
  Segment part 6.             Intra module refs:   BRRX_RadioInit_v
    -------------------------------------------------------------------------
DATA16_Z
  Relative segment, address: 1F16 - 1F16 (0x1 bytes), align: 0
  Segment part 7.             Intra module refs:   BRRX_PacketEndTimerTask_v
                                                   BRRX_RadioCalibrate_v
                                                   BRRX_RadioInit_v
                                                   BRRX_RadioReceive_v
                                                   BRRX_RadioStop_v
    -------------------------------------------------------------------------
DATA16_Z
  Relative segment, address: 1F17 - 1F17 (0x1 bytes), align: 0
  Segment part 8.             Intra module refs:   BRRX_GetFS_Offset_s8
                                                   BRRX_PacketEndTimerTask_v
    -------------------------------------------------------------------------
DATA16_Z
  Relative segment, address: 1CF8 - 1CF9 (0x2 bytes), align: 1
  Segment part 9.             Intra module refs:   BRRX_PacketEndTimerTask_v
                                                   BlueRobin_RadioISR_v
           ENTRY                   ADDRESS         REF BY
           =====                   =======         ======
           brrx_packet_end_cap_value
                                   1CF8 
    -------------------------------------------------------------------------
<CODE> 1 (was CODE)
  Relative segment, address: D5C2 - D631 (0x70 bytes), align: 1
  Segment part 17.
           ENTRY                   ADDRESS         REF BY
           =====                   =======         ======
           BRRX_RadioInit_v        D5C2            BRRX_Init_v (BRRX_API)
               calls direct
               CSTACK = 00000000 ( 00000004 )
    -------------------------------------------------------------------------
<CODE> 1 (was CODE)
  Relative segment, address: DD1A - DD6F (0x56 bytes), align: 1
  Segment part 16.
           ENTRY                   ADDRESS         REF BY
           =====                   =======         ======
           BRRX_RadioCalibrate_v   DD1A            BRRX_Init_v (BRRX_API)
               calls direct
               CSTACK = 00000000 ( 00000006 )
    -------------------------------------------------------------------------
<CODE> 1 (was CODE)
  Relative segment, address: FE68 - FE6D (0x6 bytes), align: 1
  Segment part 15.
           ENTRY                   ADDRESS         REF BY
           =====                   =======         ======
           BRRX_GetFS_Offset_s8    FE68            TrimRFCLK_Offset_v (BRRX_Scheduler)
               CSTACK = 00000000 ( 00000004 )
    -------------------------------------------------------------------------
<CODE> 1 (was CODE)
  Relative segment, address: D204 - D27F (0x7c bytes), align: 1
  Segment part 14.
           ENTRY                   ADDRESS         REF BY
           =====                   =======         ======
           BRRX_RadioReceive_v     D204            BRRX_TimerTask_v (BRRX_Timer)
                                                   BRRX__DecodePacket_u8 (BRRX_Packet)
               calls direct
               CSTACK = 00000000 ( 00000004 )
    -------------------------------------------------------------------------
<CODE> 1 (was CODE)
  Relative segment, address: EC86 - ECB7 (0x32 bytes), align: 1
  Segment part 13.
           ENTRY                   ADDRESS         REF BY
           =====                   =======         ======
           BRRX_RadioStop_v        EC86            BRRX_TimerTask_v (BRRX_Timer)
                                                   BRRX__StopTimer_v (BRRX_Timer)
               calls direct
               CSTACK = 00000000 ( 00000004 )
    -------------------------------------------------------------------------
<CODE> 1 (was CODE)
  Relative segment, address: DB5C - DBB7 (0x5c bytes), align: 1
  Segment part 10.            Intra module refs:   BlueRobin_RadioISR_v
           ENTRY                   ADDRESS         REF BY
           =====                   =======         ======
           BRRX_PacketEndTimerTask_v
                                   DB5C 
               calls direct
               CSTACK = 00000000 ( 00000004 )
    -------------------------------------------------------------------------
<CODE> 1 (was CODE)
  Relative segment, address: F974 - F985 (0x12 bytes), align: 1
  Segment part 11.
           ENTRY                   ADDRESS         REF BY
           =====                   =======         ======
           BlueRobin_RadioISR_v    F974            radio_ISR (radio)
               calls direct
               CSTACK = 00000000 ( 00000004 )

    -------------------------------------------------------------------------
  LIBRARY MODULE, NAME : BRRX_Resource

  SEGMENTS IN THE MODULE
  ======================
DATA16_Z
  Relative segment, address: 1CFA - 1D13 (0x1a bytes), align: 1
  Segment part 2.             Intra module refs:   BRRX__First_TXCB_t
           ENTRY                   ADDRESS         REF BY
           =====                   =======         ======
           BRRX__TXCB_t            1CFA 
    -------------------------------------------------------------------------
DATA16_C
  Relative segment, address: 8140 - 8141 (0x2 bytes), align: 1
  Segment part 3.
           ENTRY                   ADDRESS         REF BY
           =====                   =======         ======
           BRRX__First_TXCB_t      8140            BRRX_GetDistance_u16 (BRRX_API)
                                                   BRRX_GetID_u32 (BRRX_API)
                                                   BRRX_GetSpeed_u8 (BRRX_API)
                                                   BRRX_GetState_t (BRRX_API)
                                                   BRRX_SetID_v (BRRX_API)
                                                   BRRX_Start_v (BRRX_API)
                                                   BRRX__NewInfo_v (BRRX_API)
                                                   BRRX__Scheduler_v (BRRX_Scheduler)
                                                   ResetTXCB_v (BRRX_API)

    -------------------------------------------------------------------------
  LIBRARY MODULE, NAME : BRRX_Scheduler

  SEGMENTS IN THE MODULE
  ======================
DATA16_Z
  Relative segment, address: 1D14 - 1D15 (0x2 bytes), align: 1
  Segment part 2.             Intra module refs:   BRRX__Scheduler_v
                                                   BRRX__StartNewSearch_v
    -------------------------------------------------------------------------
DATA16_Z
  Relative segment, address: 1D16 - 1D17 (0x2 bytes), align: 1
  Segment part 3.             Intra module refs:   BRRX__Scheduler_v
                                                   GetData_v
                                                   GetPacketTolerance_u8
                                                   PrepareForFirstPacket_v
                                                   TestStartTime_v
                                                   TrimACLK_Offset_v
                                                   TrimRFCLK_Offset_v
    -------------------------------------------------------------------------
DATA16_Z
  Relative segment, address: 1F18 - 1F18 (0x1 bytes), align: 0
  Segment part 4.             Intra module refs:   BRRX__Scheduler_v
    -------------------------------------------------------------------------
DATA16_Z
  Relative segment, address: 1F19 - 1F19 (0x1 bytes), align: 0
  Segment part 5.             Intra module refs:   BRRX__Scheduler_v
           ENTRY                   ADDRESS         REF BY
           =====                   =======         ======
           BRRX__PowerdownDelay_u8
                                   1F19            BRRX_Init_v (BRRX_API)
                                                   BRRX_SetPowerdownDelay_v (BRRX_API)
    -------------------------------------------------------------------------
DATA16_Z
  Relative segment, address: 1F1A - 1F1A (0x1 bytes), align: 0
  Segment part 6.             Intra module refs:   BRRX__Scheduler_v
           ENTRY                   ADDRESS         REF BY
           =====                   =======         ======
           BRRX__SignalLevelReduction
                                   1F1A            BRRX_Init_v (BRRX_API)
                                                   BRRX_SetSignalLevelReduction_v (BRRX_API)
    -------------------------------------------------------------------------
DATA16_Z
  Relative segment, address: 1F1B - 1F1B (0x1 bytes), align: 0
  Segment part 7.             Intra module refs:   BRRX__Scheduler_v
                                                   BRRX__StartNewSearch_v
           ENTRY                   ADDRESS         REF BY
           =====                   =======         ======
           BRRX__MaxSearchTries_u8
                                   1F1B            BRRX_Init_v (BRRX_API)
                                                   BRRX_SetSearchTimeout_v (BRRX_API)
    -------------------------------------------------------------------------
DATA16_Z
  Relative segment, address: 1F1C - 1F1C (0x1 bytes), align: 0
  Segment part 8.             Intra module refs:   BRRX__Scheduler_v
                                                   BRRX__StartNewSearch_v
           ENTRY                   ADDRESS         REF BY
           =====                   =======         ======
           BRRX__SearchRatio_u8    1F1C            BRRX_Init_v (BRRX_API)
    -------------------------------------------------------------------------
DATA16_Z
  Relative segment, address: 1F1D - 1F1D (0x1 bytes), align: 0
  Segment part 9.
           ENTRY                   ADDRESS         REF BY
           =====                   =======         ======
           BRRX__TestMode_u8       1F1D            BRRX_Init_v (BRRX_API)
    -------------------------------------------------------------------------
<CODE> 1 (was CODE)
  Relative segment, address: DF0C - DF5B (0x50 bytes), align: 1
  Segment part 17.            Intra module refs:   BRRX__Scheduler_v
           ENTRY                   ADDRESS         REF BY
           =====                   =======         ======
           BRRX__StartNewSearch_v
                                   DF0C            BRRX_Start_v (BRRX_API)
               calls direct
               CSTACK = 00000000 ( 00000004 )
    -------------------------------------------------------------------------
<CODE> 1 (was CODE)
  Relative segment, address: 8B5A - 8FBD (0x464 bytes), align: 1
  Segment part 16.
           ENTRY                   ADDRESS         REF BY
           =====                   =======         ======
           BRRX__Scheduler_v       8B5A            BRRX_TimerTask_v (BRRX_Timer)
               calls direct
               CSTACK = 00000000 ( 00000018 )
    -------------------------------------------------------------------------
<CODE> 1 (was CODE)
  Relative segment, address: E458 - E49B (0x44 bytes), align: 1
  Segment part 15.            Intra module refs:   BRRX__Scheduler_v
           LOCAL                   ADDRESS         
           =====                   =======         
           TestStartTime_v         E458 
               CSTACK = 00000000 ( 0000000C )
    -------------------------------------------------------------------------
<CODE> 1 (was CODE)
  Relative segment, address: D97A - D9DB (0x62 bytes), align: 1
  Segment part 14.            Intra module refs:   BRRX__Scheduler_v
           LOCAL                   ADDRESS         
           =====                   =======         
           GetData_v               D97A 
               calls direct
               CSTACK = 00000000 ( 00000004 )
    -------------------------------------------------------------------------
<CODE> 1 (was CODE)
  Relative segment, address: DF5C - DFA9 (0x4e bytes), align: 1
  Segment part 13.            Intra module refs:   BRRX__Scheduler_v
                                                   GetData_v
           LOCAL                   ADDRESS         
           =====                   =======         
           PrepareForFirstPacket_v
                                   DF5C 
               calls direct
               CSTACK = 00000000 ( 00000004 )
    -------------------------------------------------------------------------
<CODE> 1 (was CODE)
  Relative segment, address: DDC6 - DE19 (0x54 bytes), align: 1
  Segment part 12.            Intra module refs:   PrepareForFirstPacket_v
           LOCAL                   ADDRESS         
           =====                   =======         
           TrimACLK_Offset_v       DDC6 
               CSTACK = 00000000 ( 00000004 )
    -------------------------------------------------------------------------
<CODE> 1 (was CODE)
  Relative segment, address: ED48 - ED77 (0x30 bytes), align: 1
  Segment part 11.            Intra module refs:   BRRX__Scheduler_v
           LOCAL                   ADDRESS         
           =====                   =======         
           TrimRFCLK_Offset_v      ED48 
               calls direct
               CSTACK = 00000000 ( 00000004 )
    -------------------------------------------------------------------------
<CODE> 1 (was CODE)
  Relative segment, address: F6F0 - F707 (0x18 bytes), align: 1
  Segment part 10.            Intra module refs:   BRRX__Scheduler_v
           LOCAL                   ADDRESS         
           =====                   =======         
           GetPacketTolerance_u8   F6F0 
               CSTACK = 00000000 ( 00000004 )

    -------------------------------------------------------------------------
  LIBRARY MODULE, NAME : BRRX_Timer

  SEGMENTS IN THE MODULE
  ======================
DATA16_AN
  Relative segment, address: 0344 - 0345 (0x2 bytes), align: 0
  Segment part 1. ROOT.       Intra module refs:   BRRX_TimerTask_v
                                                   BRRX__CallTimer_v
                                                   BRRX__InitTimer_v
                                                   BRRX__IsTimerRunning_v
                                                   BRRX__StartTimer_v
                                                   BRRX__StopTimer_v
                                                   SetAbsoluteTimer_v
           ENTRY                   ADDRESS         REF BY
           =====                   =======         ======
           _A_TA0CCTL1_L           0344 
    -------------------------------------------------------------------------
DATA16_AN
  Relative segment, address: 0354 - 0355 (0x2 bytes), align: 0
  Segment part 3. ROOT.       Intra module refs:   SetAbsoluteTimer_v
           ENTRY                   ADDRESS         REF BY
           =====                   =======         ======
           _A_TA0CCR1_L            0354 
    -------------------------------------------------------------------------
DATA16_Z
  Relative segment, address: 1D18 - 1D19 (0x2 bytes), align: 1
  Segment part 5.             Intra module refs:   BRRX_TimerTask_v
           ENTRY                   ADDRESS         REF BY
           =====                   =======         ======
           BRRX__NextEventTime_u16
                                   1D18            BRRX__Scheduler_v (BRRX_Scheduler)
    -------------------------------------------------------------------------
DATA16_Z
  Relative segment, address: 1D1A - 1D1B (0x2 bytes), align: 1
  Segment part 6.             Intra module refs:   BRRX_TimerTask_v
           ENTRY                   ADDRESS         REF BY
           =====                   =======         ======
           BRRX__NextEndTime_u16   1D1A            BRRX__Scheduler_v (BRRX_Scheduler)
    -------------------------------------------------------------------------
DATA16_Z
  Relative segment, address: 1F1E - 1F1E (0x1 bytes), align: 0
  Segment part 7.
           ENTRY                   ADDRESS         REF BY
           =====                   =======         ======
           BRRX__NextFrequency_u8
                                   1F1E            BRRX_RadioReceive_v (BRRX_Radio)
                                                   BRRX__Scheduler_v (BRRX_Scheduler)
    -------------------------------------------------------------------------
DATA16_Z
  Relative segment, address: 1F1F - 1F1F (0x1 bytes), align: 0
  Segment part 8.
           ENTRY                   ADDRESS         REF BY
           =====                   =======         ======
           BRRX__NextFrequencyOffset_s8
                                   1F1F            BRRX_RadioReceive_v (BRRX_Radio)
                                                   BRRX__Scheduler_v (BRRX_Scheduler)
    -------------------------------------------------------------------------
DATA16_Z
  Relative segment, address: 1F20 - 1F20 (0x1 bytes), align: 0
  Segment part 9.             Intra module refs:   BRRX_TimerTask_v
                                                   BRRX__StartTimer_v
           ENTRY                   ADDRESS         REF BY
           =====                   =======         ======
           BRRX__TimerState_t      1F20            BRRX__Scheduler_v (BRRX_Scheduler)
    -------------------------------------------------------------------------
<CODE> 1 (was CODE)
  Relative segment, address: FE74 - FE79 (0x6 bytes), align: 1
  Segment part 17.
           ENTRY                   ADDRESS         REF BY
           =====                   =======         ======
           BRRX__InitTimer_v       FE74            BRRX_Init_v (BRRX_API)
               CSTACK = 00000000 ( 00000004 )
    -------------------------------------------------------------------------
<CODE> 1 (was CODE)
  Relative segment, address: FDC2 - FDCB (0xa bytes), align: 1
  Segment part 16.
           ENTRY                   ADDRESS         REF BY
           =====                   =======         ======
           BRRX__IsTimerRunning_v
                                   FDC2            BRRX_Start_v (BRRX_API)
               CSTACK = 00000000 ( 00000004 )
    -------------------------------------------------------------------------
<CODE> 1 (was CODE)
  Relative segment, address: FEB6 - FEBB (0x6 bytes), align: 1
  Segment part 15.
           ENTRY                   ADDRESS         REF BY
           =====                   =======         ======
           BRRX__CallTimer_v       FEB6            BRRX_Start_v (BRRX_API)
                                                   BRRX__DecodePacket_u8 (BRRX_Packet)
               CSTACK = 00000000 ( 00000004 )
    -------------------------------------------------------------------------
<CODE> 1 (was CODE)
  Relative segment, address: FE12 - FE1B (0xa bytes), align: 1
  Segment part 14.
           ENTRY                   ADDRESS         REF BY
           =====                   =======         ======
           BRRX__StopTimer_v       FE12            BRRX__Scheduler_v (BRRX_Scheduler)
               calls direct
               CSTACK = 00000000 ( 00000004 )
    -------------------------------------------------------------------------
<CODE> 1 (was CODE)
  Relative segment, address: FB38 - FB47 (0x10 bytes), align: 1
  Segment part 13.
           ENTRY                   ADDRESS         REF BY
           =====                   =======         ======
           BRRX__StartTimer_v      FB38            BRRX_Start_v (BRRX_API)
               CSTACK = 00000000 ( 00000004 )
    -------------------------------------------------------------------------
<CODE> 1 (was CODE)
  Relative segment, address: FC46 - FC51 (0xc bytes), align: 1
  Segment part 10.            Intra module refs:   SetAbsoluteTimer_v
           ENTRY                   ADDRESS         REF BY
           =====                   =======         ======
           BRRX__GetCurrentTime_u16
                                   FC46            BRRX__Scheduler_v (BRRX_Scheduler)
                                                   BRRX__StartNewSearch_v (BRRX_Scheduler)
               CSTACK = 00000000 ( 00000004 )
    -------------------------------------------------------------------------
<CODE> 1 (was CODE)
  Relative segment, address: F4A2 - F4BF (0x1e bytes), align: 1
  Segment part 11.            Intra module refs:   BRRX_TimerTask_v
           LOCAL                   ADDRESS         
           =====                   =======         
           SetAbsoluteTimer_v      F4A2 
               calls direct
               CSTACK = 00000000 ( 00000004 )
    -------------------------------------------------------------------------
<CODE> 1 (was CODE)
  Relative segment, address: E810 - E84B (0x3c bytes), align: 1
  Segment part 12.
           ENTRY                   ADDRESS         REF BY
           =====                   =======         ======
           BRRX_TimerTask_v        E810            TIMER0_A1_5_ISR (timer)
               calls direct
               CSTACK = 00000000 ( 00000004 )

    -------------------------------------------------------------------------
  LIBRARY MODULE, NAME : BR_common

  SEGMENTS IN THE MODULE
  ======================
DATA16_C
  Relative segment, address: 8240 - 833F (0x100 bytes), align: 0
  Segment part 2.             Intra module refs:   BR__CalcRandomTimeOffset_u16
           ENTRY                   ADDRESS         REF BY
           =====                   =======         ======
           RandomValue_u8          8240 
    -------------------------------------------------------------------------
DATA16_Z
  Relative segment, address: 1D1C - 1D25 (0xa bytes), align: 1
  Segment part 3.
           ENTRY                   ADDRESS         REF BY
           =====                   =======         ======
           BRRX__PacketBits_t      1D1C            BRRX_PacketEndTimerTask_v (BRRX_Radio)
                                                   BRRX__DecodePacket_u8 (BRRX_Packet)
                                                   BRRX__Scheduler_v (BRRX_Scheduler)
                                                   GetData_v (BRRX_Scheduler)
    -------------------------------------------------------------------------
<CODE> 1 (was CODE)
  Relative segment, address: E8C0 - E8F9 (0x3a bytes), align: 1
  Segment part 5.
           ENTRY                   ADDRESS         REF BY
           =====                   =======         ======
           BR__CalcCRC_u8          E8C0            BRRX__DecodePacket_u8 (BRRX_Packet)
               CSTACK = 00000000 ( 00000008 )
    -------------------------------------------------------------------------
<CODE> 1 (was CODE)
  Relative segment, address: E520 - E561 (0x42 bytes), align: 1
  Segment part 4.
           ENTRY                   ADDRESS         REF BY
           =====                   =======         ======
           BR__CalcRandomTimeOffset_u16
                                   E520            BRRX__Scheduler_v (BRRX_Scheduler)
                                                   PrepareForFirstPacket_v (BRRX_Scheduler)
               CSTACK = 00000000 ( 0000000C )

    *************************************************************************

  FILE NAME : C:\Program Files (x86)\ChronosSoftware\eZ430-Chronos\Software Projects\Chronos Watch\IAR\Sports Watch\driver\ez430_chronos_codesize_limited_drivers.r43
  LIBRARY MODULE, NAME : adc12

  SEGMENTS IN THE MODULE
  ======================
DATA16_AN
  Relative segment, address: 0700 - 0701 (0x2 bytes), align: 0
  Segment part 1. ROOT.       Intra module refs:   adc12_single_conversion
           ENTRY                   ADDRESS         REF BY
           =====                   =======         ======
           _A_ADC12CTL0_L          0700 
    -------------------------------------------------------------------------
DATA16_AN
  Relative segment, address: 0702 - 0703 (0x2 bytes), align: 0
  Segment part 2. ROOT.       Intra module refs:   adc12_single_conversion
           ENTRY                   ADDRESS         REF BY
           =====                   =======         ======
           _A_ADC12CTL1_L          0702 
    -------------------------------------------------------------------------
DATA16_AN
  Relative segment, address: 070C - 070D (0x2 bytes), align: 0
  Segment part 3. ROOT.       Intra module refs:   adc12_single_conversion
           ENTRY                   ADDRESS         REF BY
           =====                   =======         ======
           _A_ADC12IE_L            070C 
    -------------------------------------------------------------------------
DATA16_AN
  Relative segment, address: 070E - 070F (0x2 bytes), align: 0
  Segment part 4. ROOT.       Intra module refs:   ADC12ISR
           ENTRY                   ADDRESS         REF BY
           =====                   =======         ======
           _A_ADC12IV_L            070E 
    -------------------------------------------------------------------------
DATA16_AN
  Relative segment, address: 0720 - 0721 (0x2 bytes), align: 0
  Segment part 5. ROOT.       Intra module refs:   ADC12ISR
           ENTRY                   ADDRESS         REF BY
           =====                   =======         ======
           _A_ADC12MEM0_L          0720 
    -------------------------------------------------------------------------
DATA16_AN
  Relative segment, address: 0710 - 0710 (0x1 bytes), align: 0
  Segment part 6. ROOT.       Intra module refs:   adc12_single_conversion
           ENTRY                   ADDRESS         REF BY
           =====                   =======         ======
           ADC12MCTL0              0710 
    -------------------------------------------------------------------------
DATA16_AN
  Relative segment, address: 01B0 - 01B1 (0x2 bytes), align: 0
  Segment part 7. ROOT.       Intra module refs:   adc12_single_conversion
           ENTRY                   ADDRESS         REF BY
           =====                   =======         ======
           _A_REFCTL0_L            01B0 
    -------------------------------------------------------------------------
DATA16_Z
  Relative segment, address: 1D26 - 1D27 (0x2 bytes), align: 1
  Segment part 10.            Intra module refs:   ADC12ISR
                                                   adc12_single_conversion
           ENTRY                   ADDRESS         REF BY
           =====                   =======         ======
           adc12_result            1D26 
    -------------------------------------------------------------------------
DATA16_Z
  Relative segment, address: 1F21 - 1F21 (0x1 bytes), align: 0
  Segment part 11.            Intra module refs:   ADC12ISR
                                                   adc12_single_conversion
           ENTRY                   ADDRESS         REF BY
           =====                   =======         ======
           adc12_data_ready        1F21 
    -------------------------------------------------------------------------
<CODE> 1 (was CODE)
  Relative segment, address: D6A2 - D70F (0x6e bytes), align: 1
  Segment part 13.
           ENTRY                   ADDRESS         REF BY
           =====                   =======         ======
           adc12_single_conversion
                                   D6A2            battery_measurement (battery)
                                                   temperature_measurement (temperature)
               calls direct
               CSTACK = 00000000 ( 00000008 )
    -------------------------------------------------------------------------
ISR_CODE
  Relative segment, address: 86BE - 86FD (0x40 bytes), align: 1
  Segment part 12.            Intra module refs:   ADC12ISR::??INTVEC 112
           ENTRY                   ADDRESS         REF BY
           =====                   =======         ======
           ADC12ISR                86BE 
               interrupt function
               CSTACK = 00000000 ( 00000006 )
    -------------------------------------------------------------------------
INTVEC
  Common segment, address: FF80 - FFF1 (0x72 bytes), align: 1
  Segment part 8. ROOT.
           ENTRY                   ADDRESS         REF BY
           =====                   =======         ======
           ADC12ISR::??INTVEC 112
                                   FFF0 

    -------------------------------------------------------------------------
  LIBRARY MODULE, NAME : buzzer

  SEGMENTS IN THE MODULE
  ======================
DATA16_AN
  Relative segment, address: 020A - 020B (0x2 bytes), align: 0
  Segment part 2. ROOT.       Intra module refs:   as_start (vti_as)
                                                   as_stop (vti_as)
                                                   start_buzzer
                                                   stop_buzzer
                                                   toggle_buzzer
           ENTRY                   ADDRESS         REF BY
           =====                   =======         ======
           _A_PASEL_L              020A 
    -------------------------------------------------------------------------
DATA16_AN
  Relative segment, address: 0380 - 0381 (0x2 bytes), align: 0
  Segment part 3. ROOT.       Intra module refs:   BSP_Delay (bsp)
                                                   BSP_InitBoard (bsp)
                                                   start_buzzer
                                                   stop_buzzer
                                                   toggle_buzzer
           ENTRY                   ADDRESS         REF BY
           =====                   =======         ======
           _A_TA1CTL_L             0380 
    -------------------------------------------------------------------------
DATA16_AN
  Relative segment, address: 0382 - 0383 (0x2 bytes), align: 0
  Segment part 4. ROOT.       Intra module refs:   BSP_Delay (bsp)
                                                   start_buzzer
                                                   stop_buzzer
           ENTRY                   ADDRESS         REF BY
           =====                   =======         ======
           _A_TA1CCTL0_L           0382 
    -------------------------------------------------------------------------
DATA16_AN
  Relative segment, address: 0390 - 0391 (0x2 bytes), align: 0
  Segment part 5. ROOT.       Intra module refs:   BSP_Delay (bsp)
                                                   toggle_buzzer
           ENTRY                   ADDRESS         REF BY
           =====                   =======         ======
           _A_TA1R_L               0390 
    -------------------------------------------------------------------------
DATA16_AN
  Relative segment, address: 0392 - 0393 (0x2 bytes), align: 0
  Segment part 6. ROOT.       Intra module refs:   BSP_Delay (bsp)
                                                   start_buzzer
           ENTRY                   ADDRESS         REF BY
           =====                   =======         ======
           _A_TA1CCR0_L            0392 
    -------------------------------------------------------------------------
DATA16_Z
  Relative segment, address: 1D28 - 1D2F (0x8 bytes), align: 1
  Segment part 8.             Intra module refs:   countdown_buzzer
                                                   reset_buzzer
                                                   start_buzzer
                                                   toggle_buzzer
           ENTRY                   ADDRESS         REF BY
           =====                   =======         ======
           sBuzzer                 1D28 
    -------------------------------------------------------------------------
<CODE> 1 (was CODE)
  Relative segment, address: FDFE - FE07 (0xa bytes), align: 1
  Segment part 9.             Intra module refs:   stop_buzzer
           ENTRY                   ADDRESS         REF BY
           =====                   =======         ======
           reset_buzzer            FDFE            init_global_variables (main)
               CSTACK = 00000000 ( 00000004 )
    -------------------------------------------------------------------------
<CODE> 1 (was CODE)
  Relative segment, address: E258 - E2A1 (0x4a bytes), align: 1
  Segment part 14.
           ENTRY                   ADDRESS         REF BY
           =====                   =======         ======
           start_buzzer            E258            PORT2_ISR (ports)
                                                   process_requests (main)
               calls direct
               CSTACK = 00000000 ( 00000004 )
    -------------------------------------------------------------------------
<CODE> 1 (was CODE)
  Relative segment, address: E2EC - E335 (0x4a bytes), align: 1
  Segment part 13.            Intra module refs:   start_buzzer
           ENTRY                   ADDRESS         REF BY
           =====                   =======         ======
           toggle_buzzer           E2EC 
               calls direct
               CSTACK = 00000000 ( 00000004 )
    -------------------------------------------------------------------------
<CODE> 1 (was CODE)
  Relative segment, address: F3C8 - F3E7 (0x20 bytes), align: 1
  Segment part 10.            Intra module refs:   countdown_buzzer
           ENTRY                   ADDRESS         REF BY
           =====                   =======         ======
           stop_buzzer             F3C8            set_value (user)
                                                   stop_alarm (alarm)
               calls direct
               CSTACK = 00000000 ( 00000004 )
    -------------------------------------------------------------------------
<CODE> 1 (was CODE)
  Relative segment, address: F8E8 - F8FB (0x14 bytes), align: 1
  Segment part 11.            Intra module refs:   toggle_buzzer
           ENTRY                   ADDRESS         REF BY
           =====                   =======         ======
           countdown_buzzer        F8E8 
               calls direct
               CSTACK = 00000000 ( 00000004 )

    -------------------------------------------------------------------------
  LIBRARY MODULE, NAME : display

  SEGMENTS IN THE MODULE
  ======================
DATA16_AN
  Relative segment, address: 0A04 - 0A05 (0x2 bytes), align: 0
  Segment part 2. ROOT.       Intra module refs:   lcd_init
                                                   set_blink_rate
                                                   start_blink
                                                   stop_blink
           ENTRY                   ADDRESS         REF BY
           =====                   =======         ======
           _A_LCDBBLKCTL_L         0A04 
    -------------------------------------------------------------------------
DATA16_AN
  Relative segment, address: 0A06 - 0A07 (0x2 bytes), align: 0
  Segment part 3. ROOT.       Intra module refs:   clear_blink_mem
                                                   lcd_init
           ENTRY                   ADDRESS         REF BY
           =====                   =======         ======
           _A_LCDBMEMCTL_L         0A06 
    -------------------------------------------------------------------------
DATA16_AN
  Relative segment, address: 0A0A - 0A0B (0x2 bytes), align: 0
  Segment part 4. ROOT.       Intra module refs:   lcd_init
           ENTRY                   ADDRESS         REF BY
           =====                   =======         ======
           _A_LCDBPCTL0_L          0A0A 
    -------------------------------------------------------------------------
DATA16_AN
  Relative segment, address: 0A0C - 0A0D (0x2 bytes), align: 0
  Segment part 5. ROOT.       Intra module refs:   lcd_init
           ENTRY                   ADDRESS         REF BY
           =====                   =======         ======
           _A_LCDBPCTL1_L          0A0C 
    -------------------------------------------------------------------------
DATA16_AN
  Relative segment, address: 0244 - 0245 (0x2 bytes), align: 0
  Segment part 6. ROOT.       Intra module refs:   lcd_init
           ENTRY                   ADDRESS         REF BY
           =====                   =======         ======
           _A_PCDIR_L              0244 
    -------------------------------------------------------------------------
DATA16_Z
  Relative segment, address: 1D30 - 1D31 (0x2 bytes), align: 1
  Segment part 10.
           ENTRY                   ADDRESS         REF BY
           =====                   =======         ======
           display                 1D30            TIMER0_A0_ISR (timer)
                                                   add_day (date)
                                                   battery_measurement (battery)
                                                   display_battery_V (battery)
                                                   display_stopwatch (stopwatch)
                                                   display_update (main)
                                                   do_acceleration_measurement (acceleration)
                                                   init_global_variables (main)
                                                   main (main)
                                                   mx_alarm (alarm)
                                                   mx_altitude (altitude)
                                                   mx_caldist (bluerobin)
                                                   mx_temperature (temperature)
                                                   simpliciti_get_ed_data_callback (rfsimpliciti)
                                                   start_simpliciti_sync (rfsimpliciti)
                                                   start_simpliciti_tx_only (rfsimpliciti)
                                                   stop_bluerobin (bluerobin)
                                                   stopwatch_tick (stopwatch)
                                                   sx_cinesync (cinesync)
                                                   temperature_measurement (temperature)
                                                   update_acceleration (menu)
                                                   update_alarm (menu)
                                                   update_battery_voltage (menu)
                                                   update_date (menu)
                                                   update_stopwatch (menu)
                                                   update_temperature (menu)
                                                   update_time (menu)
                                                   wakeup_event (main)
    -------------------------------------------------------------------------
DATA16_Z
  Relative segment, address: 1F22 - 1F29 (0x8 bytes), align: 0
  Segment part 11.            Intra module refs:   itoa
           ENTRY                   ADDRESS         REF BY
           =====                   =======         ======
           itoa_str                1F22 
    -------------------------------------------------------------------------
<CODE> 1 (was CODE)
  Relative segment, address: EF96 - EFBF (0x2a bytes), align: 1
  Segment part 28.
           ENTRY                   ADDRESS         REF BY
           =====                   =======         ======
           lcd_init                EF96            init_application (main)
               CSTACK = 00000000 ( 00000004 )
    -------------------------------------------------------------------------
<CODE> 1 (was CODE)
  Relative segment, address: F618 - F633 (0x1c bytes), align: 1
  Segment part 27.
           ENTRY                   ADDRESS         REF BY
           =====                   =======         ======
           clear_display_all       F618            mx_alarm (alarm)
                                                   mx_altitude (altitude)
                                                   mx_caldist (bluerobin)
                                                   mx_date (date)
                                                   mx_temperature (temperature)
                                                   mx_time (clock)
               calls direct and indirect
               CSTACK = 00000000 ( 00000004 )
    -------------------------------------------------------------------------
<CODE> 1 (was CODE)
  Relative segment, address: FC52 - FC5D (0xc bytes), align: 1
  Segment part 26.
           ENTRY                   ADDRESS         REF BY
           =====                   =======         ======
           clear_display           FC52            mx_time (clock)
                                                   wakeup_event (main)
               calls direct
               CSTACK = 00000000 ( 00000004 )
    -------------------------------------------------------------------------
<CODE> 1 (was CODE)
  Relative segment, address: DA9E - DAFD (0x60 bytes), align: 1
  Segment part 25.            Intra module refs:   clear_display
                                                   clear_display_all
           ENTRY                   ADDRESS         REF BY
           =====                   =======         ======
           clear_line              DA9E            display_update (main)
                                                   mx_caldist (bluerobin)
                                                   start_simpliciti_sync (rfsimpliciti)
                                                   start_simpliciti_tx_only (rfsimpliciti)
                                                   sx_rfbsl (rfbsl)
               calls direct
               CSTACK = 00000000 ( 00000006 )
    -------------------------------------------------------------------------
<CODE> 1 (was CODE)
  Relative segment, address: DEBC - DF0B (0x50 bytes), align: 1
  Segment part 17.            Intra module refs:   display_char
                                                   display_symbol
           ENTRY                   ADDRESS         REF BY
           =====                   =======         ======
           write_lcd_mem           DEBC 
               CSTACK = 00000000 ( 00000004 )
    -------------------------------------------------------------------------
<CODE> 1 (was CODE)
  Relative segment, address: BD3C - BE11 (0xd6 bytes), align: 1
  Segment part 22.            Intra module refs:   display_value1
           ENTRY                   ADDRESS         REF BY
           =====                   =======         ======
           itoa                    BD3C            display_acceleration (acceleration)
                                                   display_alarm (alarm)
                                                   display_altitude (altitude)
                                                   display_battery_V (battery)
                                                   display_calories (bluerobin)
                                                   display_cinema (cinema)
                                                   display_cinesync (cinesync)
                                                   display_date (date)
                                                   display_distance (bluerobin)
                                                   display_heartrate (bluerobin)
                                                   display_speed (bluerobin)
                                                   display_temperature (temperature)
                                                   display_time (clock)
                                                   mx_alarm (alarm)
                                                   mx_date (date)
                                                   mx_time (clock)
                                                   test_mode (test)
               calls direct
               CSTACK = 00000000 ( 00000010 )
    -------------------------------------------------------------------------
<CODE> 1 (was CODE)
  Relative segment, address: F258 - F27B (0x24 bytes), align: 1
  Segment part 23.            Intra module refs:   display_hours1
           ENTRY                   ADDRESS         REF BY
           =====                   =======         ======
           display_value1          F258            mx_alarm (alarm)
                                                   mx_altitude (altitude)
                                                   mx_caldist (bluerobin)
                                                   mx_date (date)
                                                   mx_temperature (temperature)
                                                   mx_time (clock)
               calls direct
               CSTACK = 00000000 ( 0000000A )
    -------------------------------------------------------------------------
<CODE> 1 (was CODE)
  Relative segment, address: E410 - E457 (0x48 bytes), align: 1
  Segment part 24.
           ENTRY                   ADDRESS         REF BY
           =====                   =======         ======
           display_hours1          E410            mx_alarm (alarm)
                                                   mx_time (clock)
               calls direct
               CSTACK = 00000000 ( 00000012 )
    -------------------------------------------------------------------------
<CODE> 1 (was CODE)
  Relative segment, address: F368 - F387 (0x20 bytes), align: 1
  Segment part 21.            Intra module refs:   display_hours1
           ENTRY                   ADDRESS         REF BY
           =====                   =======         ======
           display_am_pm_symbol    F368            display_alarm (alarm)
                                                   display_time (clock)
               calls direct
               CSTACK = 00000000 ( 00000004 )
    -------------------------------------------------------------------------
<CODE> 1 (was CODE)
  Relative segment, address: F12C - F151 (0x26 bytes), align: 1
  Segment part 20.            Intra module refs:   clear_line
                                                   display_am_pm_symbol
           ENTRY                   ADDRESS         REF BY
           =====                   =======         ======
           display_symbol          F12C            TIMER0_A0_ISR (timer)
                                                   battery_measurement (battery)
                                                   display_acceleration (acceleration)
                                                   display_alarm (alarm)
                                                   display_altitude (altitude)
                                                   display_battery_V (battery)
                                                   display_calories (bluerobin)
                                                   display_cinesync (cinesync)
                                                   display_date (date)
                                                   display_distance (bluerobin)
                                                   display_heartrate (bluerobin)
                                                   display_speed (bluerobin)
                                                   display_stopwatch (stopwatch)
                                                   display_temperature (temperature)
                                                   display_time (clock)
                                                   display_update (main)
                                                   mx_alarm (alarm)
                                                   mx_altitude (altitude)
                                                   mx_caldist (bluerobin)
                                                   mx_date (date)
                                                   mx_temperature (temperature)
                                                   mx_time (clock)
                                                   set_value (user)
                                                   start_simpliciti_sync (rfsimpliciti)
                                                   start_simpliciti_tx_only (rfsimpliciti)
                                                   start_stopwatch (stopwatch)
                                                   stop_bluerobin (bluerobin)
                                                   stop_stopwatch (stopwatch)
                                                   sx_bluerobin (bluerobin)
                                                   sx_cinesync (cinesync)
                                                   sx_rfbsl (rfbsl)
                                                   test_mode (test)
               calls direct
               CSTACK = 00000000 ( 00000006 )
    -------------------------------------------------------------------------
<CODE> 1 (was CODE)
  Relative segment, address: D54E - D5C1 (0x74 bytes), align: 1
  Segment part 18.            Intra module refs:   display_chars
           ENTRY                   ADDRESS         REF BY
           =====                   =======         ======
           display_char            D54E            display_acceleration (acceleration)
                                                   display_stopwatch (stopwatch)
                                                   display_temperature (temperature)
                                                   mx_temperature (temperature)
               calls direct
               CSTACK = 00000000 ( 0000000C )
    -------------------------------------------------------------------------
<CODE> 1 (was CODE)
  Relative segment, address: BC5C - BD3B (0xe0 bytes), align: 1
  Segment part 19.            Intra module refs:   clear_line
                                                   display_value1
           ENTRY                   ADDRESS         REF BY
           =====                   =======         ======
           display_chars           BC5C            TIMER0_A0_ISR (timer)
                                                   display_acceleration (acceleration)
                                                   display_alarm (alarm)
                                                   display_altitude (altitude)
                                                   display_battery_V (battery)
                                                   display_calories (bluerobin)
                                                   display_cinema (cinema)
                                                   display_cinesync (cinesync)
                                                   display_date (date)
                                                   display_distance (bluerobin)
                                                   display_heartrate (bluerobin)
                                                   display_ppt (rfsimpliciti)
                                                   display_rf (rfsimpliciti)
                                                   display_rfbsl (rfbsl)
                                                   display_selection_Timeformat1 (clock)
                                                   display_selection_User_Sex1 (bluerobin)
                                                   display_speed (bluerobin)
                                                   display_stopwatch (stopwatch)
                                                   display_sync (rfsimpliciti)
                                                   display_temperature (temperature)
                                                   display_time (clock)
                                                   display_update (main)
                                                   mx_alarm (alarm)
                                                   mx_caldist (bluerobin)
                                                   mx_date (date)
                                                   mx_time (clock)
                                                   start_altitude_measurement (altitude)
                                                   sx_rfbsl (rfbsl)
                                                   test_mode (test)
               calls direct
               CSTACK = 00000000 ( 00000010 )
    -------------------------------------------------------------------------
<CODE> 1 (was CODE)
  Relative segment, address: FC5E - FC69 (0xc bytes), align: 1
  Segment part 16.            Intra module refs:   clear_line
           ENTRY                   ADDRESS         REF BY
           =====                   =======         ======
           switch_seg              FC5E            display_alarm (alarm)
                                                   display_cinesync (cinesync)
                                                   display_date (date)
                                                   display_time (clock)
               CSTACK = 00000000 ( 00000004 )
    -------------------------------------------------------------------------
<CODE> 1 (was CODE)
  Relative segment, address: FEAA - FEAF (0x6 bytes), align: 1
  Segment part 15.
           ENTRY                   ADDRESS         REF BY
           =====                   =======         ======
           start_blink             FEAA            button_repeat_function (ports)
               CSTACK = 00000000 ( 00000004 )
    -------------------------------------------------------------------------
<CODE> 1 (was CODE)
  Relative segment, address: FE9E - FEA3 (0x6 bytes), align: 1
  Segment part 14.
           ENTRY                   ADDRESS         REF BY
           =====                   =======         ======
           stop_blink              FE9E            button_repeat_function (ports)
               CSTACK = 00000000 ( 00000004 )
    -------------------------------------------------------------------------
<CODE> 1 (was CODE)
  Relative segment, address: FE8C - FE91 (0x6 bytes), align: 1
  Segment part 13.
           ENTRY                   ADDRESS         REF BY
           =====                   =======         ======
           clear_blink_mem         FE8C            set_value (user)
               CSTACK = 00000000 ( 00000004 )
    -------------------------------------------------------------------------
<CODE> 1 (was CODE)
  Relative segment, address: FBD6 - FBE3 (0xe bytes), align: 1
  Segment part 12.
           ENTRY                   ADDRESS         REF BY
           =====                   =======         ======
           set_blink_rate          FBD6            set_value (user)
               CSTACK = 00000000 ( 00000004 )
    -------------------------------------------------------------------------
DATA16_C
  Relative segment, address: 8340 - 8347 (0x8 bytes), align: 0
  Segment part 9.             Intra module refs:   itoa

    -------------------------------------------------------------------------
  LIBRARY MODULE, NAME : display1

  SEGMENTS IN THE MODULE
  ======================
DATA16_C
  Relative segment, address: 8348 - 8372 (0x2b bytes), align: 0
  Segment part 2.
           ENTRY                   ADDRESS         REF BY
           =====                   =======         ======
           lcd_font                8348            display_char (display)
    -------------------------------------------------------------------------
DATA16_I
  Relative segment, address: 1C00 - 1C53 (0x54 bytes), align: 1
  Segment part 3.
           ENTRY                   ADDRESS         REF BY
           =====                   =======         ======
           segments_lcdmem         1C00            display_char (display)
                                                   display_symbol (display)
    -------------------------------------------------------------------------
DATA16_C
  Relative segment, address: 8373 - 839C (0x2a bytes), align: 0
  Segment part 5.
           ENTRY                   ADDRESS         REF BY
           =====                   =======         ======
           segments_bitmask        8373            display_char (display)
                                                   display_symbol (display)
    -------------------------------------------------------------------------
DATA16_C
  Relative segment, address: 839D - 85BB (0x21f bytes), align: 0
  Segment part 6.
           ENTRY                   ADDRESS         REF BY
           =====                   =======         ======
           itoa_conversion_table   839D            itoa (display)
    -------------------------------------------------------------------------
DATA16_ID
  Relative segment, address: 8616 - 8669 (0x54 bytes), align: 1
  Segment part 4.             Intra module refs:   segments_lcdmem

    -------------------------------------------------------------------------
  LIBRARY MODULE, NAME : pmm

  SEGMENTS IN THE MODULE
  ======================
DATA16_AN
  Relative segment, address: 0124 - 0125 (0x2 bytes), align: 0
  Segment part 2. ROOT.       Intra module refs:   SetVCoreUp
                                                   SetVCoreUp (bsp)
           ENTRY                   ADDRESS         REF BY
           =====                   =======         ======
           _A_SVSMHCTL_L           0124 
    -------------------------------------------------------------------------
DATA16_AN
  Relative segment, address: 0126 - 0127 (0x2 bytes), align: 0
  Segment part 3. ROOT.       Intra module refs:   SetVCore (bsp)
                                                   SetVCoreDown
                                                   SetVCoreUp
                                                   SetVCoreUp (bsp)
           ENTRY                   ADDRESS         REF BY
           =====                   =======         ======
           _A_SVSMLCTL_L           0126 
    -------------------------------------------------------------------------
DATA16_AN
  Relative segment, address: 012C - 012D (0x2 bytes), align: 0
  Segment part 4. ROOT.       Intra module refs:   SetVCore (bsp)
                                                   SetVCoreDown
                                                   SetVCoreUp
                                                   SetVCoreUp (bsp)
           ENTRY                   ADDRESS         REF BY
           =====                   =======         ======
           _A_PMMIFG_L             012C 
    -------------------------------------------------------------------------
<CODE> 1 (was CODE)
  Relative segment, address: EE8E - EEB9 (0x2c bytes), align: 1
  Segment part 8.
           ENTRY                   ADDRESS         REF BY
           =====                   =======         ======
           SetVCore                EE8E            init_application (main)
               calls direct
               CSTACK = 00000000 ( 00000006 )
    -------------------------------------------------------------------------
<CODE> 1 (was CODE)
  Relative segment, address: DBB8 - DC11 (0x5a bytes), align: 1
  Segment part 7.             Intra module refs:   SetVCore
           ENTRY                   ADDRESS         REF BY
           =====                   =======         ======
           SetVCoreUp              DBB8 
               CSTACK = 00000000 ( 00000004 )
    -------------------------------------------------------------------------
<CODE> 1 (was CODE)
  Relative segment, address: F03E - F067 (0x2a bytes), align: 1
  Segment part 6.             Intra module refs:   SetVCore
           ENTRY                   ADDRESS         REF BY
           =====                   =======         ======
           SetVCoreDown            F03E 
               CSTACK = 00000000 ( 00000004 )

    -------------------------------------------------------------------------
  LIBRARY MODULE, NAME : ports

  SEGMENTS IN THE MODULE
  ======================
DATA16_AN
  Relative segment, address: 0206 - 0207 (0x2 bytes), align: 0
  Segment part 4. ROOT.       Intra module refs:   as_read_register (vti_as)
                                                   as_start (vti_as)
                                                   as_write_register (vti_as)
                                                   init_buttons
           ENTRY                   ADDRESS         REF BY
           =====                   =======         ======
           _A_PAREN_L              0206 
    -------------------------------------------------------------------------
DATA16_AN
  Relative segment, address: 0218 - 0219 (0x2 bytes), align: 0
  Segment part 5. ROOT.       Intra module refs:   as_start (vti_as)
                                                   init_buttons
                                                   ps_init (vti_ps)
           ENTRY                   ADDRESS         REF BY
           =====                   =======         ======
           _A_PAIES_L              0218 
    -------------------------------------------------------------------------
DATA16_Z
  Relative segment, address: 1D32 - 1D33 (0x2 bytes), align: 1
  Segment part 10.            Intra module refs:   PORT2_ISR
                                                   button_repeat_function
           ENTRY                   ADDRESS         REF BY
           =====                   =======         ======
           button                  1D32            TIMER0_A0_ISR (timer)
                                                   init_global_variables (main)
                                                   main (main)
                                                   mx_alarm (alarm)
                                                   mx_altitude (altitude)
                                                   mx_bluerobin (bluerobin)
                                                   mx_caldist (bluerobin)
                                                   mx_date (date)
                                                   mx_temperature (temperature)
                                                   mx_time (clock)
                                                   set_value (user)
                                                   start_simpliciti_sync (rfsimpliciti)
                                                   start_simpliciti_tx_only (rfsimpliciti)
                                                   sx_alarm (alarm)
                                                   sx_bluerobin (bluerobin)
                                                   sx_cinesync (cinesync)
                                                   sx_stopwatch (stopwatch)
                                                   test_mode (test)
                                                   wakeup_event (main)
    -------------------------------------------------------------------------
DATA16_Z
  Relative segment, address: 1D34 - 1D37 (0x4 bytes), align: 1
  Segment part 11.            Intra module refs:   button_repeat_function
           ENTRY                   ADDRESS         REF BY
           =====                   =======         ======
           sButton                 1D34            TIMER0_A0_ISR (timer)
                                                   set_value (user)
    -------------------------------------------------------------------------
<CODE> 1 (was CODE)
  Relative segment, address: F0E0 - F105 (0x26 bytes), align: 1
  Segment part 18.
           ENTRY                   ADDRESS         REF BY
           =====                   =======         ======
           init_buttons            F0E0            init_application (main)
               CSTACK = 00000000 ( 00000004 )
    -------------------------------------------------------------------------
ISR_CODE
  Relative segment, address: 86FE - 88A3 (0x1a6 bytes), align: 1
  Segment part 19.            Intra module refs:   PORT2_ISR::??INTVEC 96
           ENTRY                   ADDRESS         REF BY
           =====                   =======         ======
           PORT2_ISR               86FE 
               interrupt function
               calls direct
               CSTACK = 00000000 ( 00000014 )
    -------------------------------------------------------------------------
DATA16_Z
  Relative segment, address: 1F2A - 1F2A (0x1 bytes), align: 0
  Segment part 12.            Intra module refs:   PORT2_ISR
    -------------------------------------------------------------------------
<CODE> 1 (was CODE)
  Relative segment, address: EEE6 - EF11 (0x2c bytes), align: 1
  Segment part 17.
           ENTRY                   ADDRESS         REF BY
           =====                   =======         ======
           button_repeat_on        EEE6            set_value (user)
               calls direct
               CSTACK = 00000000 ( 00000004 )
    -------------------------------------------------------------------------
<CODE> 1 (was CODE)
  Relative segment, address: FDA4 - FDAD (0xa bytes), align: 1
  Segment part 16.
           ENTRY                   ADDRESS         REF BY
           =====                   =======         ======
           button_repeat_off       FDA4            set_value (user)
               calls direct
               CSTACK = 00000000 ( 00000004 )
    -------------------------------------------------------------------------
<CODE> 1 (was CODE)
  Relative segment, address: D916 - D979 (0x64 bytes), align: 1
  Segment part 15.            Intra module refs:   button_repeat_on
           ENTRY                   ADDRESS         REF BY
           =====                   =======         ======
           button_repeat_function
                                   D916 
               calls direct
               CSTACK = 00000000 ( 00000006 )
    -------------------------------------------------------------------------
DATA16_I
  Relative segment, address: 1C54 - 1C54 (0x1 bytes), align: 0
  Segment part 13.            Intra module refs:   button_repeat_function
    -------------------------------------------------------------------------
INTVEC
  Common segment, address: FF80 - FFE1 (0x62 bytes), align: 1
  Segment part 8. ROOT.
           ENTRY                   ADDRESS         REF BY
           =====                   =======         ======
           PORT2_ISR::??INTVEC 96
                                   FFE0 
    -------------------------------------------------------------------------
DATA16_ID
  Relative segment, address: 866A - 866A (0x1 bytes), align: 0
  Segment part 14.            Intra module refs:   Segment part 13

    -------------------------------------------------------------------------
  LIBRARY MODULE, NAME : radio

  SEGMENTS IN THE MODULE
  ======================
DATA16_AN
  Relative segment, address: 0F06 - 0F07 (0x2 bytes), align: 0
  Segment part 1. ROOT.       Intra module refs:   radio_reset
           ENTRY                   ADDRESS         REF BY
           =====                   =======         ======
           _A_RF1AIFERR_L          0F06 
    -------------------------------------------------------------------------
DATA16_AN
  Relative segment, address: 0F38 - 0F39 (0x2 bytes), align: 0
  Segment part 4. ROOT.       Intra module refs:   MRFI_RadioIsr (mrfi)
                                                   radio_ISR
           ENTRY                   ADDRESS         REF BY
           =====                   =======         ======
           _A_RF1AIV_L             0F38 
    -------------------------------------------------------------------------
<CODE> 1 (was CODE)
  Relative segment, address: EC54 - EC85 (0x32 bytes), align: 1
  Segment part 9.             Intra module refs:   close_radio
                                                   open_radio
           ENTRY                   ADDRESS         REF BY
           =====                   =======         ======
           radio_reset             EC54            init_application (main)
               calls direct
               CSTACK = 00000000 ( 00000006 )
    -------------------------------------------------------------------------
<CODE> 1 (was CODE)
  Relative segment, address: FAD8 - FAE7 (0x10 bytes), align: 1
  Segment part 8.             Intra module refs:   close_radio
           ENTRY                   ADDRESS         REF BY
           =====                   =======         ======
           radio_powerdown         FAD8            init_application (main)
               calls direct
               CSTACK = 00000000 ( 00000004 )
    -------------------------------------------------------------------------
<CODE> 1 (was CODE)
  Relative segment, address: FA82 - FA93 (0x12 bytes), align: 1
  Segment part 11.
           ENTRY                   ADDRESS         REF BY
           =====                   =======         ======
           open_radio              FA82            start_simpliciti_sync (rfsimpliciti)
                                                   start_simpliciti_tx_only (rfsimpliciti)
                                                   sx_bluerobin (bluerobin)
                                                   sx_cinesync (cinesync)
               calls direct
               CSTACK = 00000000 ( 00000004 )
    -------------------------------------------------------------------------
<CODE> 1 (was CODE)
  Relative segment, address: FAB8 - FAC7 (0x10 bytes), align: 1
  Segment part 10.
           ENTRY                   ADDRESS         REF BY
           =====                   =======         ======
           close_radio             FAB8            start_simpliciti_sync (rfsimpliciti)
                                                   start_simpliciti_tx_only (rfsimpliciti)
                                                   stop_bluerobin (bluerobin)
                                                   sx_cinesync (cinesync)
               calls direct
               CSTACK = 00000000 ( 00000004 )
    -------------------------------------------------------------------------
ISR_CODE
  Relative segment, address: 88A4 - 88D9 (0x36 bytes), align: 1
  Segment part 7.             Intra module refs:   radio_ISR::??INTVEC 106
           ENTRY                   ADDRESS         REF BY
           =====                   =======         ======
           radio_ISR               88A4 
               interrupt function
               calls direct
               CSTACK = 00000000 ( 00000010 )
    -------------------------------------------------------------------------
INTVEC
  Common segment, address: FF80 - FFEB (0x6c bytes), align: 1
  Segment part 5. ROOT.
           ENTRY                   ADDRESS         REF BY
           =====                   =======         ======
           radio_ISR::??INTVEC 106
                                   FFEA 

    -------------------------------------------------------------------------
  LIBRARY MODULE, NAME : rf1a

  SEGMENTS IN THE MODULE
  ======================
DATA16_AN
  Relative segment, address: 0F02 - 0F03 (0x2 bytes), align: 0
  Segment part 1. ROOT.       Intra module refs:   MRFI_Init (mrfi)
                                                   ReadBurstReg
                                                   Strobe
                                                   WriteBurstReg
                                                   WritePATable
                                                   WriteSingleReg
                                                   mrfiRadioInterfaceCmdStrobe (mrfi)
                                                   mrfiRadioInterfaceReadReg (mrfi)
                                                   mrfiRadioInterfaceReadRxFifo (mrfi)
                                                   mrfiRadioInterfaceWriteReg (mrfi)
                                                   mrfiRadioInterfaceWriteTxFifo (mrfi)
           ENTRY                   ADDRESS         REF BY
           =====                   =======         ======
           _A_RF1AIFCTL1_L         0F02 
    -------------------------------------------------------------------------
DATA16_AN
  Relative segment, address: 0F10 - 0F11 (0x2 bytes), align: 0
  Segment part 2. ROOT.       Intra module refs:   MRFI_Init (mrfi)
                                                   Strobe
                                                   WriteBurstReg
                                                   WritePATable
                                                   WriteSingleReg
                                                   mrfiRadioInterfaceCmdStrobe (mrfi)
                                                   mrfiRadioInterfaceReadRxFifo (mrfi)
                                                   mrfiRadioInterfaceWriteReg (mrfi)
                                                   mrfiRadioInterfaceWriteTxFifo (mrfi)
           ENTRY                   ADDRESS         REF BY
           =====                   =======         ======
           _A_RF1AINSTRW_L         0F10 
    -------------------------------------------------------------------------
DATA16_AN
  Relative segment, address: 0F12 - 0F13 (0x2 bytes), align: 0
  Segment part 3. ROOT.       Intra module refs:   ReadBurstReg
                                                   ReadSingleReg
                                                   mrfiRadioInterfaceReadReg (mrfi)
                                                   mrfiRadioInterfaceReadRxFifo (mrfi)
           ENTRY                   ADDRESS         REF BY
           =====                   =======         ======
           _A_RF1AINSTR1W_L        0F12 
    -------------------------------------------------------------------------
DATA16_AN
  Relative segment, address: 0F20 - 0F21 (0x2 bytes), align: 0
  Segment part 4. ROOT.       Intra module refs:   MRFI_Init (mrfi)
                                                   ReadBurstReg
                                                   Strobe
                                                   WriteBurstReg
                                                   WritePATable
                                                   WriteSingleReg
                                                   mrfiRadioInterfaceCmdStrobe (mrfi)
                                                   mrfiRadioInterfaceReadRxFifo (mrfi)
           ENTRY                   ADDRESS         REF BY
           =====                   =======         ======
           _A_RF1ASTAT0W_L         0F20 
    -------------------------------------------------------------------------
DATA16_AN
  Relative segment, address: 0F22 - 0F23 (0x2 bytes), align: 0
  Segment part 5. ROOT.       Intra module refs:   ReadBurstReg
                                                   ReadSingleReg
                                                   mrfiRadioInterfaceReadReg (mrfi)
                                                   mrfiRadioInterfaceReadRxFifo (mrfi)
           ENTRY                   ADDRESS         REF BY
           =====                   =======         ======
           _A_RF1ASTAT1W_L         0F22 
    -------------------------------------------------------------------------
DATA16_AN
  Relative segment, address: 0F30 - 0F31 (0x2 bytes), align: 0
  Segment part 6. ROOT.       Intra module refs:   MRFI_Init (mrfi)
                                                   MRFI_Rssi (mrfi)
                                                   MRFI_Transmit (mrfi)
                                                   Strobe
                                                   mrfiRadioInterfaceCmdStrobe (mrfi)
           ENTRY                   ADDRESS         REF BY
           =====                   =======         ======
           _A_RF1AIN_L             0F30 
    -------------------------------------------------------------------------
<CODE> 1 (was CODE)
  Relative segment, address: CB12 - CBA5 (0x94 bytes), align: 1
  Segment part 13.
           ENTRY                   ADDRESS         REF BY
           =====                   =======         ======
           Strobe                  CB12            BRRX_RadioCalibrate_v (BRRX_Radio)
                                                   BRRX_RadioInit_v (BRRX_Radio)
                                                   BRRX_RadioReceive_v (BRRX_Radio)
                                                   BRRX_RadioStop_v (BRRX_Radio)
                                                   radio_powerdown (radio)
                                                   radio_reset (radio)
               calls direct
               CSTACK = 00000000 ( 0000000C )
    -------------------------------------------------------------------------
<CODE> 1 (was CODE)
  Relative segment, address: F852 - F867 (0x16 bytes), align: 1
  Segment part 12.            Intra module refs:   Strobe
           ENTRY                   ADDRESS         REF BY
           =====                   =======         ======
           ReadSingleReg           F852            BRRX_PacketEndTimerTask_v (BRRX_Radio)
                                                   BRRX_RadioCalibrate_v (BRRX_Radio)
               CSTACK = 00000000 ( 00000004 )
    -------------------------------------------------------------------------
<CODE> 1 (was CODE)
  Relative segment, address: E7D4 - E80F (0x3c bytes), align: 1
  Segment part 11.            Intra module refs:   Strobe
           ENTRY                   ADDRESS         REF BY
           =====                   =======         ======
           WriteSingleReg          E7D4            BRRX_Init_v (BRRX_API)
                                                   BRRX_RadioCalibrate_v (BRRX_Radio)
                                                   BRRX_RadioInit_v (BRRX_Radio)
                                                   BRRX_RadioReceive_v (BRRX_Radio)
                                                   sx_bluerobin (bluerobin)
               CSTACK = 00000000 ( 00000006 )
    -------------------------------------------------------------------------
<CODE> 1 (was CODE)
  Relative segment, address: E380 - E3C7 (0x48 bytes), align: 1
  Segment part 10.
           ENTRY                   ADDRESS         REF BY
           =====                   =======         ======
           ReadBurstReg            E380            BRRX_PacketEndTimerTask_v (BRRX_Radio)
               CSTACK = 00000000 ( 00000006 )
    -------------------------------------------------------------------------
<CODE> 1 (was CODE)
  Relative segment, address: E046 - E091 (0x4c bytes), align: 1
  Segment part 9.
           ENTRY                   ADDRESS         REF BY
           =====                   =======         ======
           WriteBurstReg           E046            BRRX_RadioInit_v (BRRX_Radio)
               CSTACK = 00000000 ( 00000006 )
    -------------------------------------------------------------------------
<CODE> 1 (was CODE)
  Relative segment, address: D84A - D8AF (0x66 bytes), align: 1
  Segment part 8.
           ENTRY                   ADDRESS         REF BY
           =====                   =======         ======
           WritePATable            D84A            BRRX_RadioCalibrate_v (BRRX_Radio)
               CSTACK = 00000000 ( 00000004 )

    -------------------------------------------------------------------------
  LIBRARY MODULE, NAME : timer

  SEGMENTS IN THE MODULE
  ======================
DATA16_AN
  Relative segment, address: 0340 - 0341 (0x2 bytes), align: 0
  Segment part 2. ROOT.       Intra module refs:   Timer0_A4_Delay
                                                   Timer0_Init
                                                   Timer0_Start
                                                   Timer0_Stop
           ENTRY                   ADDRESS         REF BY
           =====                   =======         ======
           _A_TA0CTL_L             0340 
    -------------------------------------------------------------------------
DATA16_AN
  Relative segment, address: 0342 - 0343 (0x2 bytes), align: 0
  Segment part 3. ROOT.       Intra module refs:   TIMER0_A0_ISR
                                                   Timer0_Init
           ENTRY                   ADDRESS         REF BY
           =====                   =======         ======
           _A_TA0CCTL0_L           0342 
    -------------------------------------------------------------------------
DATA16_AN
  Relative segment, address: 0348 - 0349 (0x2 bytes), align: 0
  Segment part 5. ROOT.       Intra module refs:   TIMER0_A1_5_ISR
                                                   Timer0_A3_Start
                                                   Timer0_A3_Stop
           ENTRY                   ADDRESS         REF BY
           =====                   =======         ======
           _A_TA0CCTL3_L           0348 
    -------------------------------------------------------------------------
DATA16_AN
  Relative segment, address: 034A - 034B (0x2 bytes), align: 0
  Segment part 6. ROOT.       Intra module refs:   TIMER0_A1_5_ISR
                                                   Timer0_A4_Delay
           ENTRY                   ADDRESS         REF BY
           =====                   =======         ======
           _A_TA0CCTL4_L           034A 
    -------------------------------------------------------------------------
DATA16_AN
  Relative segment, address: 0352 - 0353 (0x2 bytes), align: 0
  Segment part 8. ROOT.       Intra module refs:   TIMER0_A0_ISR
                                                   Timer0_Init
           ENTRY                   ADDRESS         REF BY
           =====                   =======         ======
           _A_TA0CCR0_L            0352 
    -------------------------------------------------------------------------
DATA16_AN
  Relative segment, address: 0358 - 0359 (0x2 bytes), align: 0
  Segment part 9. ROOT.       Intra module refs:   TIMER0_A1_5_ISR
                                                   Timer0_A3_Start
           ENTRY                   ADDRESS         REF BY
           =====                   =======         ======
           _A_TA0CCR3_L            0358 
    -------------------------------------------------------------------------
DATA16_AN
  Relative segment, address: 035A - 035B (0x2 bytes), align: 0
  Segment part 10. ROOT.      Intra module refs:   Timer0_A4_Delay
           ENTRY                   ADDRESS         REF BY
           =====                   =======         ======
           _A_TA0CCR4_L            035A 
    -------------------------------------------------------------------------
DATA16_AN
  Relative segment, address: 036E - 036F (0x2 bytes), align: 0
  Segment part 11. ROOT.      Intra module refs:   TIMER0_A1_5_ISR
           ENTRY                   ADDRESS         REF BY
           =====                   =======         ======
           _A_TA0IV_L              036E 
    -------------------------------------------------------------------------
DATA16_Z
  Relative segment, address: 1D38 - 1D3B (0x4 bytes), align: 1
  Segment part 17.            Intra module refs:   TIMER0_A1_5_ISR
           ENTRY                   ADDRESS         REF BY
           =====                   =======         ======
           fptr_Timer0_A3_function
                                   1D38            button_repeat_on (ports)
                                                   start_buzzer (buzzer)
    -------------------------------------------------------------------------
DATA16_Z
  Relative segment, address: 1D3C - 1D3D (0x2 bytes), align: 1
  Segment part 18.            Intra module refs:   TIMER0_A1_5_ISR
                                                   Timer0_A3_Start
           ENTRY                   ADDRESS         REF BY
           =====                   =======         ======
           sTimer                  1D3C            start_buzzer (buzzer)
                                                   toggle_buzzer (buzzer)
    -------------------------------------------------------------------------
<CODE> 1 (was CODE)
  Relative segment, address: F938 - F94B (0x14 bytes), align: 1
  Segment part 27.
           ENTRY                   ADDRESS         REF BY
           =====                   =======         ======
           Timer0_Init             F938            init_application (main)
               CSTACK = 00000000 ( 00000004 )
    -------------------------------------------------------------------------
<CODE> 1 (was CODE)
  Relative segment, address: FE44 - FE4B (0x8 bytes), align: 1
  Segment part 26.
           ENTRY                   ADDRESS         REF BY
           =====                   =======         ======
           Timer0_Start            FE44            mx_time (clock)
                                                   test_mode (test)
               CSTACK = 00000000 ( 00000004 )
    -------------------------------------------------------------------------
<CODE> 1 (was CODE)
  Relative segment, address: FD36 - FD41 (0xc bytes), align: 1
  Segment part 25.
           ENTRY                   ADDRESS         REF BY
           =====                   =======         ======
           Timer0_Stop             FD36            mx_time (clock)
                                                   test_mode (test)
               CSTACK = 00000000 ( 00000004 )
    -------------------------------------------------------------------------
<CODE> 1 (was CODE)
  Relative segment, address: F7B0 - F7C7 (0x18 bytes), align: 1
  Segment part 24.
           ENTRY                   ADDRESS         REF BY
           =====                   =======         ======
           Timer0_A3_Start         F7B0            button_repeat_on (ports)
                                                   start_buzzer (buzzer)
               CSTACK = 00000000 ( 00000004 )
    -------------------------------------------------------------------------
<CODE> 1 (was CODE)
  Relative segment, address: FE54 - FE5B (0x8 bytes), align: 1
  Segment part 23.
           ENTRY                   ADDRESS         REF BY
           =====                   =======         ======
           Timer0_A3_Stop          FE54            button_repeat_off (ports)
                                                   stop_buzzer (buzzer)
               CSTACK = 00000000 ( 00000004 )
    -------------------------------------------------------------------------
<CODE> 1 (was CODE)
  Relative segment, address: E0DE - E129 (0x4c bytes), align: 1
  Segment part 22.
           ENTRY                   ADDRESS         REF BY
           =====                   =======         ======
           Timer0_A4_Delay         E0DE            PORT2_ISR (ports)
                                                   adc12_single_conversion (adc12)
                                                   as_start (vti_as)
                                                   ps_init (vti_ps)
                                                   simpliciti_get_ed_data_callback (rfsimpliciti)
                                                   simpliciti_main_sync (main_ED_BM)
                                                   start_simpliciti_sync (rfsimpliciti)
                                                   start_simpliciti_tx_only (rfsimpliciti)
                                                   sx_bluerobin (bluerobin)
                                                   sx_cinesync (cinesync)
                                                   test_mode (test)
               calls direct
               CSTACK = 00000000 ( 00000004 )
    -------------------------------------------------------------------------
ISR_CODE
  Relative segment, address: 88DA - 8AE5 (0x20c bytes), align: 1
  Segment part 21.            Intra module refs:   TIMER0_A0_ISR::??INTVEC 110
           ENTRY                   ADDRESS         REF BY
           =====                   =======         ======
           TIMER0_A0_ISR           88DA 
               interrupt function
               calls direct
               CSTACK = 00000000 ( 0000000C )
    -------------------------------------------------------------------------
DATA16_Z
  Relative segment, address: 1F2B - 1F2B (0x1 bytes), align: 0
  Segment part 19.            Intra module refs:   TIMER0_A0_ISR
    -------------------------------------------------------------------------
ISR_CODE
  Relative segment, address: 8AE6 - 8B59 (0x74 bytes), align: 1
  Segment part 20.            Intra module refs:   TIMER0_A1_5_ISR::??INTVEC 108
           ENTRY                   ADDRESS         REF BY
           =====                   =======         ======
           TIMER0_A1_5_ISR         8AE6 
               interrupt function
               calls direct and indirect
               CSTACK = 00000000 ( 0000000C )
    -------------------------------------------------------------------------
INTVEC
  Common segment, address: FF80 - FFED (0x6e bytes), align: 1
  Segment part 13. ROOT.
           ENTRY                   ADDRESS         REF BY
           =====                   =======         ======
           TIMER0_A1_5_ISR::??INTVEC 108
                                   FFEC 
    -------------------------------------------------------------------------
INTVEC
  Common segment, address: FF80 - FFEF (0x70 bytes), align: 1
  Segment part 14. ROOT.
           ENTRY                   ADDRESS         REF BY
           =====                   =======         ======
           TIMER0_A0_ISR::??INTVEC 110
                                   FFEE 
    -------------------------------------------------------------------------
DATA16_C
  Relative segment, address: 85BC - 85C0 (0x5 bytes), align: 0
  Segment part 16.            Intra module refs:   TIMER0_A0_ISR

    -------------------------------------------------------------------------
  LIBRARY MODULE, NAME : vti_as

  SEGMENTS IN THE MODULE
  ======================
DATA16_AN
  Relative segment, address: 0322 - 0323 (0x2 bytes), align: 0
  Segment part 8. ROOT.       Intra module refs:   as_get_data
                                                   as_init
                                                   as_read_register
                                                   as_start
                                                   as_stop
                                                   as_write_register
                                                   ps_init (vti_ps)
                                                   ps_twi_read (vti_ps)
                                                   ps_twi_sda (vti_ps)
                                                   ps_twi_write (vti_ps)
           ENTRY                   ADDRESS         REF BY
           =====                   =======         ======
           _A_PJOUT_L              0322 
    -------------------------------------------------------------------------
DATA16_AN
  Relative segment, address: 0324 - 0325 (0x2 bytes), align: 0
  Segment part 9. ROOT.       Intra module refs:   as_init
                                                   as_stop
                                                   ps_init (vti_ps)
                                                   ps_twi_read (vti_ps)
                                                   ps_twi_sda (vti_ps)
                                                   ps_twi_write (vti_ps)
           ENTRY                   ADDRESS         REF BY
           =====                   =======         ======
           _A_PJDIR_L              0324 
    -------------------------------------------------------------------------
DATA16_AN
  Relative segment, address: 05C0 - 05C1 (0x2 bytes), align: 0
  Segment part 10. ROOT.      Intra module refs:   as_start
           ENTRY                   ADDRESS         REF BY
           =====                   =======         ======
           _A_UCA0CTLW0_L          05C0 
    -------------------------------------------------------------------------
DATA16_AN
  Relative segment, address: 05C6 - 05C7 (0x2 bytes), align: 0
  Segment part 11. ROOT.      Intra module refs:   as_start
           ENTRY                   ADDRESS         REF BY
           =====                   =======         ======
           _A_UCA0BRW_L            05C6 
    -------------------------------------------------------------------------
DATA16_AN
  Relative segment, address: 05CC - 05CC (0x1 bytes), align: 0
  Segment part 12. ROOT.      Intra module refs:   as_read_register
                                                   as_write_register
           ENTRY                   ADDRESS         REF BY
           =====                   =======         ======
           UCA0RXBUF               05CC 
    -------------------------------------------------------------------------
DATA16_AN
  Relative segment, address: 05CE - 05CE (0x1 bytes), align: 0
  Segment part 13. ROOT.      Intra module refs:   as_read_register
                                                   as_write_register
           ENTRY                   ADDRESS         REF BY
           =====                   =======         ======
           UCA0TXBUF               05CE 
    -------------------------------------------------------------------------
DATA16_AN
  Relative segment, address: 05DC - 05DD (0x2 bytes), align: 0
  Segment part 14. ROOT.      Intra module refs:   as_read_register
                                                   as_write_register
           ENTRY                   ADDRESS         REF BY
           =====                   =======         ======
           _A_UCA0ICTL_L           05DC 
    -------------------------------------------------------------------------
DATA16_Z
  Relative segment, address: 1F2C - 1F2C (0x1 bytes), align: 0
  Segment part 16.            Intra module refs:   as_init
                                                   as_read_register
                                                   as_write_register
           ENTRY                   ADDRESS         REF BY
           =====                   =======         ======
           as_ok                   1F2C            display_acceleration (acceleration)
    -------------------------------------------------------------------------
<CODE> 1 (was CODE)
  Relative segment, address: EDD6 - EE03 (0x2e bytes), align: 1
  Segment part 22.
           ENTRY                   ADDRESS         REF BY
           =====                   =======         ======
           as_init                 EDD6            init_application (main)
               CSTACK = 00000000 ( 00000004 )
    -------------------------------------------------------------------------
<CODE> 1 (was CODE)
  Relative segment, address: CDE4 - CE6D (0x8a bytes), align: 1
  Segment part 21.
           ENTRY                   ADDRESS         REF BY
           =====                   =======         ======
           as_start                CDE4            display_acceleration (acceleration)
                                                   start_simpliciti_tx_only (rfsimpliciti)
                                                   test_mode (test)
               calls direct
               CSTACK = 00000000 ( 00000006 )
    -------------------------------------------------------------------------
<CODE> 1 (was CODE)
  Relative segment, address: EBF0 - EC21 (0x32 bytes), align: 1
  Segment part 20.
           ENTRY                   ADDRESS         REF BY
           =====                   =======         ======
           as_stop                 EBF0            TIMER0_A0_ISR (timer)
                                                   display_acceleration (acceleration)
                                                   start_simpliciti_sync (rfsimpliciti)
                                                   start_simpliciti_tx_only (rfsimpliciti)
                                                   sx_cinesync (cinesync)
                                                   test_mode (test)
               CSTACK = 00000000 ( 00000004 )
    -------------------------------------------------------------------------
<CODE> 1 (was CODE)
  Relative segment, address: D4D8 - D54D (0x76 bytes), align: 1
  Segment part 17.            Intra module refs:   as_get_data
           ENTRY                   ADDRESS         REF BY
           =====                   =======         ======
           as_read_register        D4D8 
               CSTACK = 00000000 ( 00000004 )
    -------------------------------------------------------------------------
<CODE> 1 (was CODE)
  Relative segment, address: D2FA - D371 (0x78 bytes), align: 1
  Segment part 19.            Intra module refs:   as_start
           ENTRY                   ADDRESS         REF BY
           =====                   =======         ======
           as_write_register       D2FA 
               CSTACK = 00000000 ( 00000004 )
    -------------------------------------------------------------------------
<CODE> 1 (was CODE)
  Relative segment, address: EF3E - EF69 (0x2c bytes), align: 1
  Segment part 18.
           ENTRY                   ADDRESS         REF BY
           =====                   =======         ======
           as_get_data             EF3E            do_acceleration_measurement (acceleration)
                                                   simpliciti_get_ed_data_callback (rfsimpliciti)
                                                   sx_acceleration (acceleration)
                                                   test_mode (test)
               calls direct
               CSTACK = 00000000 ( 00000004 )

    -------------------------------------------------------------------------
  LIBRARY MODULE, NAME : vti_ps

  SEGMENTS IN THE MODULE
  ======================
DATA16_AN
  Relative segment, address: 0320 - 0321 (0x2 bytes), align: 0
  Segment part 3. ROOT.       Intra module refs:   ps_twi_read
                                                   ps_twi_sda
           ENTRY                   ADDRESS         REF BY
           =====                   =======         ======
           _A_PJIN_L               0320 
    -------------------------------------------------------------------------
DATA16_C
  Relative segment, address: 8142 - 8163 (0x22 bytes), align: 1
  Segment part 7.             Intra module refs:   conv_pa_to_meter
                                                   update_pressure_table
           ENTRY                   ADDRESS         REF BY
           =====                   =======         ======
           h0                      8142 
    -------------------------------------------------------------------------
DATA16_C
  Relative segment, address: 8164 - 8185 (0x22 bytes), align: 1
  Segment part 8.             Intra module refs:   init_pressure_table
                                                   update_pressure_table
           ENTRY                   ADDRESS         REF BY
           =====                   =======         ======
           p0                      8164 
    -------------------------------------------------------------------------
DATA16_Z
  Relative segment, address: 1D3E - 1D81 (0x44 bytes), align: 1
  Segment part 9.             Intra module refs:   conv_pa_to_meter
                                                   init_pressure_table
                                                   update_pressure_table
           ENTRY                   ADDRESS         REF BY
           =====                   =======         ======
           p                       1D3E 
    -------------------------------------------------------------------------
DATA16_Z
  Relative segment, address: 1F2D - 1F2D (0x1 bytes), align: 0
  Segment part 10.            Intra module refs:   ps_init
           ENTRY                   ADDRESS         REF BY
           =====                   =======         ======
           ps_ok                   1F2D            reset_altitude_measurement (altitude)
                                                   start_altitude_measurement (altitude)
                                                   stop_altitude_measurement (altitude)
    -------------------------------------------------------------------------
<CODE> 1 (was CODE)
  Relative segment, address: D372 - D3E9 (0x78 bytes), align: 1
  Segment part 24.
           ENTRY                   ADDRESS         REF BY
           =====                   =======         ======
           ps_init                 D372            init_application (main)
               calls direct
               CSTACK = 00000000 ( 00000006 )
    -------------------------------------------------------------------------
<CODE> 1 (was CODE)
  Relative segment, address: FD4E - FD59 (0xc bytes), align: 1
  Segment part 23.
           ENTRY                   ADDRESS         REF BY
           =====                   =======         ======
           ps_start                FD4E            start_altitude_measurement (altitude)
               calls direct
               CSTACK = 00000000 ( 00000004 )
    -------------------------------------------------------------------------
<CODE> 1 (was CODE)
  Relative segment, address: FD72 - FD7B (0xa bytes), align: 1
  Segment part 22.
           ENTRY                   ADDRESS         REF BY
           =====                   =======         ======
           ps_stop                 FD72            stop_altitude_measurement (altitude)
               calls direct
               CSTACK = 00000000 ( 00000004 )
    -------------------------------------------------------------------------
<CODE> 1 (was CODE)
  Relative segment, address: C390 - C43F (0xb0 bytes), align: 1
  Segment part 17.            Intra module refs:   ps_read_register
                                                   ps_write_register
           ENTRY                   ADDRESS         REF BY
           =====                   =======         ======
           ps_twi_sda              C390 
               calls direct
               CSTACK = 00000000 ( 00000004 )
    -------------------------------------------------------------------------
<CODE> 1 (was CODE)
  Relative segment, address: FECC - FECF (0x4 bytes), align: 1
  Segment part 14.            Intra module refs:   ps_twi_read
                                                   ps_twi_sda
                                                   ps_twi_write
           ENTRY                   ADDRESS         REF BY
           =====                   =======         ======
           twi_delay               FECC 
               CSTACK = 00000000 ( 00000004 )
    -------------------------------------------------------------------------
<CODE> 1 (was CODE)
  Relative segment, address: E176 - E1C1 (0x4c bytes), align: 1
  Segment part 16.            Intra module refs:   ps_read_register
                                                   ps_write_register
           ENTRY                   ADDRESS         REF BY
           =====                   =======         ======
           ps_twi_write            E176 
               calls direct
               CSTACK = 00000000 ( 00000004 )
    -------------------------------------------------------------------------
<CODE> 1 (was CODE)
  Relative segment, address: DCC2 - DD19 (0x58 bytes), align: 1
  Segment part 15.            Intra module refs:   ps_read_register
           ENTRY                   ADDRESS         REF BY
           =====                   =======         ======
           ps_twi_read             DCC2 
               calls direct
               CSTACK = 00000000 ( 00000004 )
    -------------------------------------------------------------------------
<CODE> 1 (was CODE)
  Relative segment, address: D77C - D7E3 (0x68 bytes), align: 1
  Segment part 21.            Intra module refs:   ps_init
                                                   ps_start
                                                   ps_stop
           ENTRY                   ADDRESS         REF BY
           =====                   =======         ======
           ps_write_register       D77C 
               calls direct
               CSTACK = 00000000 ( 0000000A )
    -------------------------------------------------------------------------
<CODE> 1 (was CODE)
  Relative segment, address: CD58 - CDE3 (0x8c bytes), align: 1
  Segment part 18.            Intra module refs:   ps_get_pa
                                                   ps_get_temp
                                                   ps_init
           ENTRY                   ADDRESS         REF BY
           =====                   =======         ======
           ps_read_register        CD58 
               calls direct
               CSTACK = 00000000 ( 0000000C )
    -------------------------------------------------------------------------
<CODE> 1 (was CODE)
  Relative segment, address: D9DC - DA3D (0x62 bytes), align: 1
  Segment part 20.
           ENTRY                   ADDRESS         REF BY
           =====                   =======         ======
           ps_get_pa               D9DC            do_altitude_measurement (altitude)
               calls direct
               CSTACK = 00000000 ( 00000008 )
    -------------------------------------------------------------------------
<CODE> 1 (was CODE)
  Relative segment, address: DD70 - DDC5 (0x56 bytes), align: 1
  Segment part 19.
           ENTRY                   ADDRESS         REF BY
           =====                   =======         ======
           ps_get_temp             DD70            do_altitude_measurement (altitude)
               calls direct
               CSTACK = 00000000 ( 0000000A )
    -------------------------------------------------------------------------
<CODE> 1 (was CODE)
  Relative segment, address: EEBA - EEE5 (0x2c bytes), align: 1
  Segment part 13.
           ENTRY                   ADDRESS         REF BY
           =====                   =======         ======
           init_pressure_table     EEBA            reset_altitude_measurement (altitude)
               calls direct
               CSTACK = 00000000 ( 00000006 )
    -------------------------------------------------------------------------
<CODE> 1 (was CODE)
  Relative segment, address: 9384 - 961D (0x29a bytes), align: 1
  Segment part 12.
           ENTRY                   ADDRESS         REF BY
           =====                   =======         ======
           update_pressure_table   9384            mx_altitude (altitude)
                                                   reset_altitude_measurement (altitude)
                                                   simpliciti_sync_decode_ap_cmd_callback (rfsimpliciti)
               calls direct
               CSTACK = 00000000 ( 0000002C )
    -------------------------------------------------------------------------
<CODE> 1 (was CODE)
  Relative segment, address: 8FBE - 9383 (0x3c6 bytes), align: 1
  Segment part 11.
           ENTRY                   ADDRESS         REF BY
           =====                   =======         ======
           conv_pa_to_meter        8FBE            do_altitude_measurement (altitude)
               calls direct
               CSTACK = 00000000 ( 0000002A )

    *************************************************************************

  FILE NAME : C:\Program Files (x86)\ChronosSoftware\eZ430-Chronos\Software Projects\Chronos Watch\IAR\Sports Watch\simpliciti\CC430_End_Device_868MHz.r43
  LIBRARY MODULE, NAME : bsp

  SEGMENTS IN THE MODULE
  ======================
DATA16_AN
  Relative segment, address: 0222 - 0223 (0x2 bytes), align: 0
  Segment part 4. ROOT.
           ENTRY                   ADDRESS         REF BY
           =====                   =======         ======
           _A_PBOUT_L              0222 
    -------------------------------------------------------------------------
DATA16_AN
  Relative segment, address: 0224 - 0225 (0x2 bytes), align: 0
  Segment part 5. ROOT.
           ENTRY                   ADDRESS         REF BY
           =====                   =======         ======
           _A_PBDIR_L              0224 
    -------------------------------------------------------------------------
<CODE> 1 (was CODE)
  Relative segment, address: E4DE - E51F (0x42 bytes), align: 1
  Segment part 31.            Intra module refs:   __low_level_init
           LOCAL                   ADDRESS         
           =====                   =======         
           SetVCore                E4DE 
               calls direct
               CSTACK = 00000000 ( 00000008 )
    -------------------------------------------------------------------------
<CODE> 1 (was CODE)
  Relative segment, address: E720 - E75B (0x3c bytes), align: 1
  Segment part 30.            Intra module refs:   SetVCore
           LOCAL                   ADDRESS         
           =====                   =======         
           SetVCoreUp              E720 
               CSTACK = 00000000 ( 00000004 )
    -------------------------------------------------------------------------
<CODE> 1 (was CODE)
  Relative segment, address: FB08 - FB17 (0x10 bytes), align: 1
  Segment part 32.            Intra module refs:   SetVCore
                                                   SetVCoreUp
    -------------------------------------------------------------------------
<CODE> 1 (was CODE)
  Relative segment, address: E20E - E257 (0x4a bytes), align: 1
  Segment part 28.            Intra module refs:   __low_level_init
           LOCAL                   ADDRESS         
           =====                   =======         
           Bsp_SetClocks           E20E 
               CSTACK = 00000000 ( 00000004 )
    -------------------------------------------------------------------------
<CODE> 1 (was CODE)
  Relative segment, address: F894 - F8A9 (0x16 bytes), align: 1
  Segment part 29. ROOT.
           ENTRY                   ADDRESS         REF BY
           =====                   =======         ======
           __low_level_init        F894            ?cstart_call_low_level_init (?cstart)
               calls direct
               CSTACK = 00000000 ( 00000004 )
    -------------------------------------------------------------------------
<CODE> 1 (was CODE)
  Relative segment, address: FAF8 - FB07 (0x10 bytes), align: 1
  Segment part 27.
           ENTRY                   ADDRESS         REF BY
           =====                   =======         ======
           BSP_InitBoard           FAF8            simpliciti_link (main_ED_BM)
               CSTACK = 00000000 ( 00000004 )
    -------------------------------------------------------------------------
<CODE> 1 (was CODE)
  Relative segment, address: EB8A - EBBD (0x34 bytes), align: 1
  Segment part 26.
           ENTRY                   ADDRESS         REF BY
           =====                   =======         ======
           BSP_Delay               EB8A            Segment part 55 (mrfi)
               CSTACK = 00000000 ( 00000004 )

    -------------------------------------------------------------------------
  LIBRARY MODULE, NAME : main_ED_BM

  SEGMENTS IN THE MODULE
  ======================
DATA16_Z
  Relative segment, address: 1F2E - 1F2E (0x1 bytes), align: 0
  Segment part 3.             Intra module refs:   Segment part 7
                                                   simpliciti_link
                                                   simpliciti_main_sync
    -------------------------------------------------------------------------
<CODE> 1 (was CODE)
  Relative segment, address: FBE4 - FBE9 (0x6 bytes), align: 1
  Segment part 8.             Intra module refs:   simpliciti_main_sync
                                                   simpliciti_main_tx_only
    -------------------------------------------------------------------------
<CODE> 1 (was CODE)
  Relative segment, address: FBEA - FBF1 (0x8 bytes), align: 1
  Segment part 9.             Intra module refs:   Segment part 8
                                                   simpliciti_link
                                                   simpliciti_main_sync
                                                   simpliciti_main_tx_only
    -------------------------------------------------------------------------
<CODE> 1 (was CODE)
  Relative segment, address: CA7C - CB11 (0x96 bytes), align: 1
  Segment part 10.
           ENTRY                   ADDRESS         REF BY
           =====                   =======         ======
           simpliciti_link         CA7C            start_simpliciti_sync (rfsimpliciti)
                                                   start_simpliciti_tx_only (rfsimpliciti)
                                                   sx_cinesync (cinesync)
               calls direct
               CSTACK = 00000000 ( 0000000C )
    -------------------------------------------------------------------------
<CODE> 1 (was CODE)
  Relative segment, address: F708 - F71F (0x18 bytes), align: 1
  Segment part 11.            Intra module refs:   simpliciti_link
    -------------------------------------------------------------------------
<CODE> 1 (was CODE)
  Relative segment, address: ECE8 - ED17 (0x30 bytes), align: 1
  Segment part 5.
           ENTRY                   ADDRESS         REF BY
           =====                   =======         ======
           simpliciti_main_tx_only
                                   ECE8            start_simpliciti_tx_only (rfsimpliciti)
               calls direct
               CSTACK = 00000000 ( 00000004 )
    -------------------------------------------------------------------------
<CODE> 1 (was CODE)
  Relative segment, address: FD5A - FD5D (0x4 bytes), align: 1
  Segment part 6.             Intra module refs:   simpliciti_main_sync
                                                   simpliciti_main_tx_only
    -------------------------------------------------------------------------
<CODE> 1 (was CODE)
  Relative segment, address: FD5E - FD65 (0x8 bytes), align: 1
  Segment part 7.             Intra module refs:   Segment part 6
                                                   simpliciti_main_sync
    -------------------------------------------------------------------------
<CODE> 1 (was CODE)
  Relative segment, address: C9E6 - CA7B (0x96 bytes), align: 1
  Segment part 4.
           ENTRY                   ADDRESS         REF BY
           =====                   =======         ======
           simpliciti_main_sync    C9E6            start_simpliciti_sync (rfsimpliciti)
                                                   sx_cinesync (cinesync)
               calls direct
               CSTACK = 00000000 ( 0000000A )

    -------------------------------------------------------------------------
  LIBRARY MODULE, NAME : mrfi

  SEGMENTS IN THE MODULE
  ======================
DATA16_AN
  Relative segment, address: 0F0C - 0F0D (0x2 bytes), align: 0
  Segment part 2. ROOT.       Intra module refs:   MRFI_RadioIsr
           ENTRY                   ADDRESS         REF BY
           =====                   =======         ======
           _A_RF1AIFERRV_L         0F0C 
    -------------------------------------------------------------------------
DATA16_AN
  Relative segment, address: 0F0E - 0F0F (0x2 bytes), align: 0
  Segment part 3. ROOT.       Intra module refs:   MRFI_RadioIsr
           ENTRY                   ADDRESS         REF BY
           =====                   =======         ======
           _A_RF1AIFIV_L           0F0E 
    -------------------------------------------------------------------------
DATA16_C
  Relative segment, address: 85C1 - 85C4 (0x4 bytes), align: 0
  Segment part 14.            Intra module refs:   Mrfi_RxAddrIsFiltered
           ENTRY                   ADDRESS         REF BY
           =====                   =======         ======
           mrfiBroadcastAddr       85C1            nwk_getBCastAddress (nwk_globals)
    -------------------------------------------------------------------------
DATA16_C
  Relative segment, address: 85C5 - 8604 (0x40 bytes), align: 0
  Segment part 15.            Intra module refs:   MRFI_Init
           ENTRY                   ADDRESS         REF BY
           =====                   =======         ======
           mrfiRadioCfg            85C5 
    -------------------------------------------------------------------------
DATA16_C
  Relative segment, address: 8605 - 8608 (0x4 bytes), align: 0
  Segment part 16.            Intra module refs:   MRFI_SetLogicalChannel
    -------------------------------------------------------------------------
DATA16_C
  Relative segment, address: 8609 - 860B (0x3 bytes), align: 0
  Segment part 17.            Intra module refs:   MRFI_SetRFPwr
    -------------------------------------------------------------------------
DATA16_Z
  Relative segment, address: 1F2F - 1F2F (0x1 bytes), align: 0
  Segment part 18.            Intra module refs:   MRFI_GetRadioState
                                                   MRFI_RxIdle
                                                   MRFI_RxOn
                                                   MRFI_Sleep
                                                   MRFI_Transmit
                                                   MRFI_WakeUp
                                                   Segment part 70
                                                   Segment part 73
                                                   Segment part 74
                                                   Segment part 76
    -------------------------------------------------------------------------
DATA16_Z
  Relative segment, address: 1F30 - 1F50 (0x21 bytes), align: 0
  Segment part 19.            Intra module refs:   MRFI_Init
                                                   MRFI_Receive
                                                   Mrfi_SyncPinRxIsr
                                                   Segment part 63
    -------------------------------------------------------------------------
DATA16_Z
  Relative segment, address: 1F51 - 1F51 (0x1 bytes), align: 0
  Segment part 20.            Intra module refs:   MRFI_Init
                                                   MRFI_RandomByte
    -------------------------------------------------------------------------
DATA16_Z
  Relative segment, address: 1F52 - 1F52 (0x1 bytes), align: 0
  Segment part 21.            Intra module refs:   MRFI_PostKillSem
                                                   MRFI_ReplyDelay
    -------------------------------------------------------------------------
DATA16_Z
  Relative segment, address: 1F53 - 1F53 (0x1 bytes), align: 0
  Segment part 22.            Intra module refs:   MRFI_PostKillSem
                                                   MRFI_ReplyDelay
    -------------------------------------------------------------------------
DATA16_Z
  Relative segment, address: 1D82 - 1D83 (0x2 bytes), align: 1
  Segment part 23.            Intra module refs:   MRFI_Init
                                                   MRFI_ReplyDelay
    -------------------------------------------------------------------------
DATA16_Z
  Relative segment, address: 1D84 - 1D85 (0x2 bytes), align: 1
  Segment part 24.            Intra module refs:   MRFI_Init
                                                   MRFI_Transmit
    -------------------------------------------------------------------------
DATA16_Z
  Relative segment, address: 1F54 - 1F54 (0x1 bytes), align: 0
  Segment part 25.            Intra module refs:   MRFI_EnableRxAddrFilter
                                                   Mrfi_RxAddrIsFiltered
    -------------------------------------------------------------------------
DATA16_I
  Relative segment, address: 1C55 - 1C58 (0x4 bytes), align: 0
  Segment part 26.            Intra module refs:   MRFI_EnableRxAddrFilter
                                                   MRFI_SetRxAddrFilter
                                                   Mrfi_RxAddrIsFiltered
    -------------------------------------------------------------------------
DATA16_Z
  Relative segment, address: 1D86 - 1D89 (0x4 bytes), align: 1
  Segment part 28.            Intra module refs:   Mrfi_SyncPinRxIsr
    -------------------------------------------------------------------------
DATA16_Z
  Relative segment, address: 1D8A - 1D8D (0x4 bytes), align: 1
  Segment part 29.            Intra module refs:   Mrfi_SyncPinRxIsr
    -------------------------------------------------------------------------
DATA16_Z
  Relative segment, address: 1D8E - 1D91 (0x4 bytes), align: 1
  Segment part 30.            Intra module refs:   Mrfi_SyncPinRxIsr
    -------------------------------------------------------------------------
<CODE> 1 (was CODE)
  Relative segment, address: FD90 - FD99 (0xa bytes), align: 1
  Segment part 37.            Intra module refs:   MRFI_Init
                                                   mrfiRadioInterfaceWriteReg
                                                   mrfiRadioInterfaceWriteTxFifo
    -------------------------------------------------------------------------
<CODE> 1 (was CODE)
  Relative segment, address: FB48 - FB57 (0x10 bytes), align: 1
  Segment part 39.            Intra module refs:   MRFI_Init
                                                   mrfiRadioInterfaceReadReg
                                                   mrfiRadioInterfaceWriteReg
                                                   mrfiRadioInterfaceWriteTxFifo
    -------------------------------------------------------------------------
<CODE> 1 (was CODE)
  Relative segment, address: FE3C - FE43 (0x8 bytes), align: 1
  Segment part 42.            Intra module refs:   MRFI_Init
                                                   mrfiRadioInterfaceCmdStrobe
                                                   mrfiRadioInterfaceReadRxFifo
    -------------------------------------------------------------------------
<CODE> 1 (was CODE)
  Relative segment, address: FE24 - FE2B (0x8 bytes), align: 1
  Segment part 61.            Intra module refs:   Mrfi_RxModeOn
                                                   Mrfi_SyncPinRxIsr
                                                   Segment part 80
    -------------------------------------------------------------------------
<CODE> 1 (was CODE)
  Relative segment, address: FBAC - FBAF (0x4 bytes), align: 1
  Segment part 62.            Intra module refs:   MRFI_Init
                                                   Mrfi_SyncPinRxIsr
    -------------------------------------------------------------------------
<CODE> 1 (was CODE)
  Relative segment, address: FBB0 - FBB9 (0xa bytes), align: 1
  Segment part 63.            Intra module refs:   MRFI_Init
                                                   Segment part 62
    -------------------------------------------------------------------------
<CODE> 1 (was CODE)
  Relative segment, address: FAC8 - FAD7 (0x10 bytes), align: 1
  Segment part 74.            Intra module refs:   MRFI_Init
                                                   MRFI_RadioIsr
                                                   MRFI_Rssi
                                                   MRFI_Transmit
                                                   Mrfi_SyncPinRxIsr
                                                   mrfiRadioInterfaceReadReg
                                                   mrfiRadioInterfaceWriteReg
    -------------------------------------------------------------------------
<CODE> 1 (was CODE)
  Relative segment, address: AB66 - AC95 (0x130 bytes), align: 1
  Segment part 75.
           ENTRY                   ADDRESS         REF BY
           =====                   =======         ======
           MRFI_Init               AB66            SMPL_Init (nwk_api)
               calls direct
               CSTACK = 00000000 ( 00000006 )
    -------------------------------------------------------------------------
<CODE> 1 (was CODE)
  Relative segment, address: FC38 - FC45 (0xe bytes), align: 1
  Segment part 76.            Intra module refs:   MRFI_Init
                                                   MRFI_Sleep
    -------------------------------------------------------------------------
<CODE> 1 (was CODE)
  Relative segment, address: FE2C - FE33 (0x8 bytes), align: 1
  Segment part 77.            Intra module refs:   MRFI_Init
                                                   MRFI_WakeUp
    -------------------------------------------------------------------------
<CODE> 1 (was CODE)
  Relative segment, address: FCD6 - FCD7 (0x2 bytes), align: 1
  Segment part 78.            Intra module refs:   MRFI_Init
    -------------------------------------------------------------------------
<CODE> 1 (was CODE)
  Relative segment, address: FCD8 - FCE1 (0xa bytes), align: 1
  Segment part 79.            Intra module refs:   MRFI_WakeUp
                                                   Segment part 78
    -------------------------------------------------------------------------
<CODE> 1 (was CODE)
  Relative segment, address: FCBE - FCC9 (0xc bytes), align: 1
  Segment part 80.            Intra module refs:   MRFI_Init
                                                   MRFI_Transmit
    -------------------------------------------------------------------------
<CODE> 1 (was CODE)
  Relative segment, address: FBF2 - FBFF (0xe bytes), align: 1
  Segment part 81.            Intra module refs:   MRFI_Init
                                                   mrfiRadioInterfaceReadRxFifo
    -------------------------------------------------------------------------
<CODE> 1 (was CODE)
  Relative segment, address: FCB2 - FCBD (0xc bytes), align: 1
  Segment part 34.            Intra module refs:   MRFI_EnableRxAddrFilter
                                                   MRFI_Transmit
                                                   mrfiRadioInterfaceReadRxFifo
                                                   mrfiRadioInterfaceWriteTxFifo
    -------------------------------------------------------------------------
<CODE> 1 (was CODE)
  Relative segment, address: F484 - F4A1 (0x1e bytes), align: 1
  Segment part 64.            Intra module refs:   MRFI_Transmit
                                                   Mrfi_RxModeOff
                                                   Mrfi_SyncPinRxIsr
    -------------------------------------------------------------------------
<CODE> 1 (was CODE)
  Relative segment, address: C592 - C635 (0xa4 bytes), align: 1
  Segment part 72.
           ENTRY                   ADDRESS         REF BY
           =====                   =======         ======
           MRFI_Transmit           C592            nwk_sendAckReply (nwk_frame)
                                                   nwk_sendFrame (nwk_frame)
               calls direct
               CSTACK = 00000000 ( 0000000C )
    -------------------------------------------------------------------------
<CODE> 1 (was CODE)
  Relative segment, address: FC0E - FC1B (0xe bytes), align: 1
  Segment part 73.            Intra module refs:   MRFI_SetLogicalChannel
                                                   MRFI_Transmit
    -------------------------------------------------------------------------
<CODE> 1 (was CODE)
  Relative segment, address: FCA6 - FCB1 (0xc bytes), align: 1
  Segment part 71.
           ENTRY                   ADDRESS         REF BY
           =====                   =======         ======
           MRFI_Receive            FCA6            MRFI_RxCompleteISR (nwk_frame)
               CSTACK = 00000000 ( 00000004 )
    -------------------------------------------------------------------------
<CODE> 1 (was CODE)
  Relative segment, address: C2D0 - C38F (0xc0 bytes), align: 1
  Segment part 60.            Intra module refs:   MRFI_RadioIsr
           LOCAL                   ADDRESS         
           =====                   =======         
           Mrfi_SyncPinRxIsr       C2D0 
               calls direct
               CSTACK = 00000000 ( 00000008 )
    -------------------------------------------------------------------------
<CODE> 1 (was CODE)
  Relative segment, address: F9CE - F9DF (0x12 bytes), align: 1
  Segment part 49.            Intra module refs:   MRFI_RxOn
                                                   Segment part 73
           LOCAL                   ADDRESS         
           =====                   =======         
           Mrfi_RxModeOn           F9CE 
               calls direct
               CSTACK = 00000000 ( 00000004 )
    -------------------------------------------------------------------------
<CODE> 1 (was CODE)
  Relative segment, address: F9AA - F9BB (0x12 bytes), align: 1
  Segment part 69.
           ENTRY                   ADDRESS         REF BY
           =====                   =======         ======
           MRFI_RxOn               F9AA            Segment part 13 (nwk_api)
                                                   Segment part 20 (nwk_link)
                                                   nwk_join (nwk_join)
                                                   nwk_radioControl (nwk_ioctl)
               calls direct
               CSTACK = 00000000 ( 00000004 )
    -------------------------------------------------------------------------
<CODE> 1 (was CODE)
  Relative segment, address: F924 - F937 (0x14 bytes), align: 1
  Segment part 70.            Intra module refs:   MRFI_RxIdle
                                                   MRFI_RxOn
    -------------------------------------------------------------------------
<CODE> 1 (was CODE)
  Relative segment, address: F998 - F9A9 (0x12 bytes), align: 1
  Segment part 50.            Intra module refs:   MRFI_Init
                                                   MRFI_RxIdle
                                                   MRFI_SetLogicalChannel
                                                   MRFI_Transmit
           LOCAL                   ADDRESS         
           =====                   =======         
           Mrfi_RxModeOff          F998 
               calls direct
               CSTACK = 00000000 ( 00000004 )
    -------------------------------------------------------------------------
<CODE> 1 (was CODE)
  Relative segment, address: FAE8 - FAF7 (0x10 bytes), align: 1
  Segment part 67.            Intra module refs:   MRFI_Sleep
           ENTRY                   ADDRESS         REF BY
           =====                   =======         ======
           MRFI_RxIdle             FAE8            Segment part 14 (nwk_api)
                                                   Segment part 21 (nwk_link)
                                                   nwk_join (nwk_join)
                                                   nwk_radioControl (nwk_ioctl)
               calls direct
               CSTACK = 00000000 ( 00000004 )
    -------------------------------------------------------------------------
<CODE> 1 (was CODE)
  Relative segment, address: F66C - F687 (0x1c bytes), align: 1
  Segment part 68.
           ENTRY                   ADDRESS         REF BY
           =====                   =======         ======
           MRFI_Sleep              F66C            Segment part 14 (nwk_api)
                                                   Segment part 21 (nwk_link)
                                                   nwk_join (nwk_join)
                                                   nwk_radioControl (nwk_ioctl)
               calls direct
               CSTACK = 00000000 ( 00000006 )
    -------------------------------------------------------------------------
<CODE> 1 (was CODE)
  Relative segment, address: F688 - F6A1 (0x1a bytes), align: 1
  Segment part 66.
           ENTRY                   ADDRESS         REF BY
           =====                   =======         ======
           MRFI_WakeUp             F688            SMPL_Init (nwk_api)
                                                   Segment part 13 (nwk_api)
                                                   Segment part 20 (nwk_link)
                                                   nwk_join (nwk_join)
                                                   nwk_radioControl (nwk_ioctl)
               calls direct
               CSTACK = 00000000 ( 00000004 )
    -------------------------------------------------------------------------
<CODE> 1 (was CODE)
  Relative segment, address: DAFE - DB5B (0x5e bytes), align: 1
  Segment part 65.
           ENTRY                   ADDRESS         REF BY
           =====                   =======         ======
           MRFI_RadioIsr           DAFE            radio_ISR (radio)
               calls direct
               CSTACK = 00000000 ( 00000004 )
    -------------------------------------------------------------------------
<CODE> 1 (was CODE)
  Relative segment, address: F87E - F893 (0x16 bytes), align: 1
  Segment part 59.
           ENTRY                   ADDRESS         REF BY
           =====                   =======         ======
           MRFI_Rssi               F87E            nwk_radioControl (nwk_ioctl)
               calls direct
               CSTACK = 00000000 ( 00000004 )
    -------------------------------------------------------------------------
<CODE> 1 (was CODE)
  Relative segment, address: F0B8 - F0DF (0x28 bytes), align: 1
  Segment part 58.            Intra module refs:   MRFI_Rssi
                                                   Mrfi_SyncPinRxIsr
           LOCAL                   ADDRESS         
           =====                   =======         
           Mrfi_CalculateRssi      F0B8 
               CSTACK = 00000000 ( 00000004 )
    -------------------------------------------------------------------------
<CODE> 1 (was CODE)
  Relative segment, address: F428 - F447 (0x20 bytes), align: 1
  Segment part 57.            Intra module refs:   MRFI_Transmit
           ENTRY                   ADDRESS         REF BY
           =====                   =======         ======
           MRFI_RandomByte         F428            nwk_frameInit (nwk_frame)
                                                   nwk_joinInit (nwk_join)
                                                   nwk_linkInit (nwk_link)
                                                   nwk_mgmtInit (nwk_mgmt)
                                                   nwk_pingInit (nwk_ping)
               CSTACK = 00000000 ( 00000006 )
    -------------------------------------------------------------------------
<CODE> 1 (was CODE)
  Relative segment, address: F448 - F465 (0x1e bytes), align: 1
  Segment part 40.            Intra module refs:   MRFI_DelayMs
                                                   MRFI_Transmit
                                                   mrfiRadioInterfaceCmdStrobe
           LOCAL                   ADDRESS         
           =====                   =======         
           Mrfi_DelayUsec          F448 
               calls direct
               CSTACK = 00000000 ( 00000008 )
    -------------------------------------------------------------------------
<CODE> 1 (was CODE)
  Relative segment, address: FC9A - FCA5 (0xc bytes), align: 1
  Segment part 55.            Intra module refs:   MRFI_ReplyDelay
                                                   Mrfi_DelayUsec
    -------------------------------------------------------------------------
<CODE> 1 (was CODE)
  Relative segment, address: F7C8 - F7DF (0x18 bytes), align: 1
  Segment part 56.
           ENTRY                   ADDRESS         REF BY
           =====                   =======         ======
           MRFI_DelayMs            F7C8            Segment part 11 (main_ED_BM)
                                                   simpliciti_main_sync (main_ED_BM)
               calls direct
               CSTACK = 00000000 ( 00000006 )
    -------------------------------------------------------------------------
<CODE> 1 (was CODE)
  Relative segment, address: DFF8 - E045 (0x4e bytes), align: 1
  Segment part 54.
           ENTRY                   ADDRESS         REF BY
           =====                   =======         ======
           MRFI_ReplyDelay         DFF8            SMPL_SendOpt (nwk_api)
                                                   nwk_join (nwk_join)
                                                   nwk_link (nwk_link)
               calls direct
               CSTACK = 00000000 ( 0000000C )
    -------------------------------------------------------------------------
<CODE> 1 (was CODE)
  Relative segment, address: FC8E - FC99 (0xc bytes), align: 1
  Segment part 53.
           ENTRY                   ADDRESS         REF BY
           =====                   =======         ======
           MRFI_PostKillSem        FC8E            nwk_isConnectionValid (nwk)
                                                   nwk_processJoin (nwk_join)
                                                   nwk_processLink (nwk_link)
                                                   nwk_processMgmt (nwk_mgmt)
                                                   nwk_processPing (nwk_ping)
               CSTACK = 00000000 ( 00000004 )
    -------------------------------------------------------------------------
<CODE> 1 (was CODE)
  Relative segment, address: FE86 - FE8B (0x6 bytes), align: 1
  Segment part 52.
           ENTRY                   ADDRESS         REF BY
           =====                   =======         ======
           MRFI_GetRadioState      FE86            SMPL_SendOpt (nwk_api)
                                                   nwk_join (nwk_join)
                                                   nwk_link (nwk_link)
               CSTACK = 00000000 ( 00000004 )
    -------------------------------------------------------------------------
<CODE> 1 (was CODE)
  Relative segment, address: F1C4 - F1E9 (0x26 bytes), align: 1
  Segment part 51.            Intra module refs:   MRFI_Init
           ENTRY                   ADDRESS         REF BY
           =====                   =======         ======
           MRFI_SetLogicalChannel
                                   F1C4 
               calls direct
               CSTACK = 00000000 ( 00000006 )
    -------------------------------------------------------------------------
<CODE> 1 (was CODE)
  Relative segment, address: F6BC - F6D5 (0x1a bytes), align: 1
  Segment part 48.            Intra module refs:   MRFI_Init
           ENTRY                   ADDRESS         REF BY
           =====                   =======         ======
           MRFI_SetRFPwr           F6BC            nwk_radioControl (nwk_ioctl)
               calls direct
               CSTACK = 00000000 ( 00000004 )
    -------------------------------------------------------------------------
<CODE> 1 (was CODE)
  Relative segment, address: EFEA - F013 (0x2a bytes), align: 1
  Segment part 47.
           ENTRY                   ADDRESS         REF BY
           =====                   =======         ======
           MRFI_SetRxAddrFilter    EFEA            SMPL_Init (nwk_api)
               calls direct
               CSTACK = 00000000 ( 00000004 )
    -------------------------------------------------------------------------
<CODE> 1 (was CODE)
  Relative segment, address: F810 - F825 (0x16 bytes), align: 1
  Segment part 46.
           ENTRY                   ADDRESS         REF BY
           =====                   =======         ======
           MRFI_EnableRxAddrFilter
                                   F810            SMPL_Init (nwk_api)
               calls direct
               CSTACK = 00000000 ( 00000004 )
    -------------------------------------------------------------------------
<CODE> 1 (was CODE)
  Relative segment, address: E6E2 - E71F (0x3e bytes), align: 1
  Segment part 44.            Intra module refs:   Mrfi_SyncPinRxIsr
           LOCAL                   ADDRESS         
           =====                   =======         
           Mrfi_RxAddrIsFiltered   E6E2 
               CSTACK = 00000000 ( 00000008 )
    -------------------------------------------------------------------------
<CODE> 1 (was CODE)
  Relative segment, address: CCCA - CD57 (0x8e bytes), align: 1
  Segment part 41.            Intra module refs:   MRFI_Init
                                                   MRFI_Transmit
                                                   Segment part 61
                                                   Segment part 64
                                                   Segment part 76
                                                   Segment part 77
                                                   Segment part 79
           ENTRY                   ADDRESS         REF BY
           =====                   =======         ======
           mrfiRadioInterfaceCmdStrobe
                                   CCCA 
               calls direct
               CSTACK = 00000000 ( 00000008 )
    -------------------------------------------------------------------------
<CODE> 1 (was CODE)
  Relative segment, address: EB22 - EB55 (0x34 bytes), align: 1
  Segment part 38.            Intra module refs:   MRFI_Init
                                                   MRFI_Rssi
                                                   Mrfi_SyncPinRxIsr
                                                   mrfiRadioInterfaceCmdStrobe
           ENTRY                   ADDRESS         REF BY
           =====                   =======         ======
           mrfiRadioInterfaceReadReg
                                   EB22 
               CSTACK = 00000000 ( 00000004 )
    -------------------------------------------------------------------------
<CODE> 1 (was CODE)
  Relative segment, address: F306 - F327 (0x22 bytes), align: 1
  Segment part 36.            Intra module refs:   MRFI_EnableRxAddrFilter
                                                   MRFI_Init
                                                   MRFI_SetLogicalChannel
                                                   MRFI_SetRFPwr
                                                   MRFI_SetRxAddrFilter
                                                   mrfiRadioInterfaceCmdStrobe
           ENTRY                   ADDRESS         REF BY
           =====                   =======         ======
           mrfiRadioInterfaceWriteReg
                                   F306 
               CSTACK = 00000000 ( 00000004 )
    -------------------------------------------------------------------------
<CODE> 1 (was CODE)
  Relative segment, address: F466 - F483 (0x1e bytes), align: 1
  Segment part 35.            Intra module refs:   MRFI_Transmit
           ENTRY                   ADDRESS         REF BY
           =====                   =======         ======
           mrfiRadioInterfaceWriteTxFifo
                                   F466 
               CSTACK = 00000000 ( 00000004 )
    -------------------------------------------------------------------------
DATA16_I
  Relative segment, address: 1C59 - 1C59 (0x1 bytes), align: 0
  Segment part 31.            Intra module refs:   mrfiRadioInterfaceReadRxFifo
           ENTRY                   ADDRESS         REF BY
           =====                   =======         ======
           method                  1C59 
    -------------------------------------------------------------------------
<CODE> 1 (was CODE)
  Relative segment, address: E1C2 - E20D (0x4c bytes), align: 1
  Segment part 33.            Intra module refs:   Mrfi_SyncPinRxIsr
           ENTRY                   ADDRESS         REF BY
           =====                   =======         ======
           mrfiRadioInterfaceReadRxFifo
                                   E1C2 
               CSTACK = 00000000 ( 00000004 )
    -------------------------------------------------------------------------
DATA16_ID
  Relative segment, address: 866B - 866E (0x4 bytes), align: 0
  Segment part 27.            Intra module refs:   Segment part 26
    -------------------------------------------------------------------------
DATA16_ID
  Relative segment, address: 866F - 866F (0x1 bytes), align: 0
  Segment part 32.            Intra module refs:   method

    -------------------------------------------------------------------------
  LIBRARY MODULE, NAME : nwk

  SEGMENTS IN THE MODULE
  ======================
DATA16_I
  Relative segment, address: 1C5A - 1C76 (0x1d bytes), align: 0
  Segment part 2.             Intra module refs:   Segment part 17
                                                   initializeConnection
                                                   map_lid2idx
                                                   nwk_allocateLocalRxPort
                                                   nwk_findPeer
                                                   nwk_getConnInfo
                                                   nwk_getNextConnection
                                                   nwk_isConnectionValid
                                                   nwk_isLinkDuplicate
                                                   nwk_nwkInit
    -------------------------------------------------------------------------
<CODE> 1 (was CODE)
  Relative segment, address: C636 - C6D5 (0xa0 bytes), align: 1
  Segment part 23.
           ENTRY                   ADDRESS         REF BY
           =====                   =======         ======
           nwk_nwkInit             C636            SMPL_Init (nwk_api)
               calls direct
               CSTACK = 00000000 ( 00000008 )
    -------------------------------------------------------------------------
<CODE> 1 (was CODE)
  Relative segment, address: E5E4 - E623 (0x40 bytes), align: 1
  Segment part 22.
           ENTRY                   ADDRESS         REF BY
           =====                   =======         ======
           nwk_getNextConnection   E5E4            nwk_link (nwk_link)
                                                   smpl_send_link_reply (nwk_link)
               calls direct
               CSTACK = 00000000 ( 00000006 )
    -------------------------------------------------------------------------
<CODE> 1 (was CODE)
  Relative segment, address: EE60 - EE8D (0x2e bytes), align: 1
  Segment part 21.            Intra module refs:   nwk_getNextConnection
           LOCAL                   ADDRESS         
           =====                   =======         
           initializeConnection    EE60 
               calls direct
               CSTACK = 00000000 ( 00000006 )
    -------------------------------------------------------------------------
<CODE> 1 (was CODE)
  Relative segment, address: FE80 - FE85 (0x6 bytes), align: 1
  Segment part 20.
           ENTRY                   ADDRESS         REF BY
           =====                   =======         ======
           nwk_freeConnection      FE80            nwk_connectionControl (nwk_ioctl)
                                                   nwk_link (nwk_link)
                                                   smpl_send_link_reply (nwk_link)
                                                   smpl_send_unlink_reply (nwk_link)
               CSTACK = 00000000 ( 00000004 )
    -------------------------------------------------------------------------
<CODE> 1 (was CODE)
  Relative segment, address: F090 - F0B7 (0x28 bytes), align: 1
  Segment part 19.
           ENTRY                   ADDRESS         REF BY
           =====                   =======         ======
           nwk_getConnInfo         F090            SMPL_Receive (nwk_api)
                                                   SMPL_SendOpt (nwk_api)
                                                   nwk_QfindOldest (nwk_QMgmt)
                                                   nwk_connectionControl (nwk_ioctl)
                                                   nwk_radioControl (nwk_ioctl)
                                                   nwk_retrieveFrame (nwk_frame)
               calls direct
               CSTACK = 00000000 ( 00000006 )
    -------------------------------------------------------------------------
<CODE> 1 (was CODE)
  Relative segment, address: F234 - F257 (0x24 bytes), align: 1
  Segment part 15.
           ENTRY                   ADDRESS         REF BY
           =====                   =======         ======
           nwk_isLinkDuplicate     F234            smpl_send_link_reply (nwk_link)
               calls direct
               CSTACK = 00000000 ( 00000006 )
    -------------------------------------------------------------------------
<CODE> 1 (was CODE)
  Relative segment, address: FC00 - FC01 (0x2 bytes), align: 1
  Segment part 16.            Intra module refs:   nwk_isLinkDuplicate
    -------------------------------------------------------------------------
<CODE> 1 (was CODE)
  Relative segment, address: FC02 - FC05 (0x4 bytes), align: 1
  Segment part 17.            Intra module refs:   Segment part 16
                                                   nwk_allocateLocalRxPort
    -------------------------------------------------------------------------
<CODE> 1 (was CODE)
  Relative segment, address: FC06 - FC0D (0x8 bytes), align: 1
  Segment part 18.            Intra module refs:   Segment part 17
                                                   nwk_findPeer
                                                   nwk_isConnectionValid
                                                   nwk_isValidReply
    -------------------------------------------------------------------------
<CODE> 1 (was CODE)
  Relative segment, address: F1EA - F20F (0x26 bytes), align: 1
  Segment part 13.
           ENTRY                   ADDRESS         REF BY
           =====                   =======         ======
           nwk_checkConnInfo       F1EA            SMPL_Receive (nwk_api)
                                                   SMPL_SendOpt (nwk_api)
               CSTACK = 00000000 ( 00000004 )
    -------------------------------------------------------------------------
<CODE> 1 (was CODE)
  Relative segment, address: CF7E - D003 (0x86 bytes), align: 1
  Segment part 12.
           ENTRY                   ADDRESS         REF BY
           =====                   =======         ======
           nwk_isConnectionValid   CF7E            dispatchFrame (nwk_frame)
               calls direct
               CSTACK = 00000000 ( 00000010 )
    -------------------------------------------------------------------------
<CODE> 1 (was CODE)
  Relative segment, address: C6D6 - C775 (0xa0 bytes), align: 1
  Segment part 11.
           ENTRY                   ADDRESS         REF BY
           =====                   =======         ======
           nwk_allocateLocalRxPort
                                   C6D6            nwk_link (nwk_link)
                                                   smpl_send_link_reply (nwk_link)
               calls direct
               CSTACK = 00000000 ( 0000000E )
    -------------------------------------------------------------------------
<CODE> 1 (was CODE)
  Relative segment, address: E934 - E96D (0x3a bytes), align: 1
  Segment part 10.
           ENTRY                   ADDRESS         REF BY
           =====                   =======         ======
           nwk_isValidReply        E934            nwk_processJoin (nwk_join)
                                                   nwk_processLink (nwk_link)
                                                   nwk_processMgmt (nwk_mgmt)
                                                   nwk_processPing (nwk_ping)
               calls direct
               CSTACK = 00000000 ( 00000008 )
    -------------------------------------------------------------------------
<CODE> 1 (was CODE)
  Relative segment, address: F068 - F08F (0x28 bytes), align: 1
  Segment part 9.             Intra module refs:   initializeConnection
                                                   nwk_getConnInfo
           LOCAL                   ADDRESS         
           =====                   =======         
           map_lid2idx             F068 
               CSTACK = 00000000 ( 00000004 )
    -------------------------------------------------------------------------
<CODE> 1 (was CODE)
  Relative segment, address: E798 - E7D3 (0x3c bytes), align: 1
  Segment part 8.
           ENTRY                   ADDRESS         REF BY
           =====                   =======         ======
           nwk_findPeer            E798            smpl_send_unlink_reply (nwk_link)
               calls direct
               CSTACK = 00000000 ( 0000000C )
    -------------------------------------------------------------------------
<CODE> 1 (was CODE)
  Relative segment, address: EDA8 - EDD5 (0x2e bytes), align: 1
  Segment part 6.
           ENTRY                   ADDRESS         REF BY
           =====                   =======         ======
           nwk_getNumObjectFromMsg
                                   EDA8            smpl_send_link_reply (nwk_link)
               calls direct
               CSTACK = 00000000 ( 00000008 )
    -------------------------------------------------------------------------
<CODE> 1 (was CODE)
  Relative segment, address: EA4E - EA83 (0x36 bytes), align: 1
  Segment part 5.
           ENTRY                   ADDRESS         REF BY
           =====                   =======         ======
           nwk_putNumObjectIntoMsg
                                   EA4E            nwk_join (nwk_join)
                                                   nwk_link (nwk_link)
               calls direct
               CSTACK = 00000000 ( 0000000A )
    -------------------------------------------------------------------------
<CODE> 1 (was CODE)
  Relative segment, address: FEDC - FEDF (0x4 bytes), align: 1
  Segment part 4.
           ENTRY                   ADDRESS         REF BY
           =====                   =======         ======
           nwk_NVObj               FEDC            SMPL_Ioctl (nwk_api)
               CSTACK = 00000000 ( 00000004 )
    -------------------------------------------------------------------------
DATA16_ID
  Relative segment, address: 8670 - 868C (0x1d bytes), align: 0
  Segment part 3.             Intra module refs:   Segment part 2

    -------------------------------------------------------------------------
  LIBRARY MODULE, NAME : nwk_QMgmt

  SEGMENTS IN THE MODULE
  ======================
DATA16_Z
  Relative segment, address: 1F55 - 1F9A (0x46 bytes), align: 0
  Segment part 2.             Intra module refs:   nwk_QInit
                                                   nwk_QadjustOrder
                                                   nwk_QfindOldest
                                                   nwk_QfindSlot
    -------------------------------------------------------------------------
DATA16_Z
  Relative segment, address: 1F9B - 1FE0 (0x46 bytes), align: 0
  Segment part 3.             Intra module refs:   nwk_QInit
                                                   nwk_QfindSlot
    -------------------------------------------------------------------------
<CODE> 1 (was CODE)
  Relative segment, address: F650 - F66B (0x1c bytes), align: 1
  Segment part 8.
           ENTRY                   ADDRESS         REF BY
           =====                   =======         ======
           nwk_QInit               F650            nwk_nwkInit (nwk)
               calls direct
               CSTACK = 00000000 ( 00000004 )
    -------------------------------------------------------------------------
<CODE> 1 (was CODE)
  Relative segment, address: D3EA - D461 (0x78 bytes), align: 1
  Segment part 7.
           ENTRY                   ADDRESS         REF BY
           =====                   =======         ======
           nwk_QfindSlot           D3EA            MRFI_RxCompleteISR (nwk_frame)
                                                   nwk_buildFrame (nwk_frame)
               calls direct
               CSTACK = 00000000 ( 0000000C )
    -------------------------------------------------------------------------
<CODE> 1 (was CODE)
  Relative segment, address: EF12 - EF3D (0x2c bytes), align: 1
  Segment part 6.             Intra module refs:   nwk_QfindSlot
           ENTRY                   ADDRESS         REF BY
           =====                   =======         ======
           nwk_QadjustOrder        EF12            nwk_retrieveFrame (nwk_frame)
               CSTACK = 00000000 ( 00000004 )
    -------------------------------------------------------------------------
<CODE> 1 (was CODE)
  Relative segment, address: BE12 - BEE7 (0xd6 bytes), align: 1
  Segment part 5.
           ENTRY                   ADDRESS         REF BY
           =====                   =======         ======
           nwk_QfindOldest         BE12            nwk_retrieveFrame (nwk_frame)
               calls direct
               CSTACK = 00000000 ( 00000016 )

    -------------------------------------------------------------------------
  LIBRARY MODULE, NAME : nwk_api

  SEGMENTS IN THE MODULE
  ======================
DATA16_Z
  Relative segment, address: 1FE1 - 1FE1 (0x1 bytes), align: 0
  Segment part 2.             Intra module refs:   SMPL_Init
                                                   SMPL_Ioctl
           ENTRY                   ADDRESS         REF BY
           =====                   =======         ======
           sInit_done              1FE1            simpliciti_link (main_ED_BM)
                                                   simpliciti_main_sync (main_ED_BM)
                                                   simpliciti_main_tx_only (main_ED_BM)
    -------------------------------------------------------------------------
<CODE> 1 (was CODE)
  Relative segment, address: E9DE - EA15 (0x38 bytes), align: 1
  Segment part 15.
           ENTRY                   ADDRESS         REF BY
           =====                   =======         ======
           SMPL_Init               E9DE            simpliciti_link (main_ED_BM)
               calls direct
               CSTACK = 00000000 ( 00000008 )
    -------------------------------------------------------------------------
<CODE> 1 (was CODE)
  Relative segment, address: FDD6 - FDDF (0xa bytes), align: 1
  Segment part 13.            Intra module refs:   SMPL_SendOpt
    -------------------------------------------------------------------------
<CODE> 1 (was CODE)
  Relative segment, address: FE08 - FE11 (0xa bytes), align: 1
  Segment part 14.            Intra module refs:   SMPL_SendOpt
    -------------------------------------------------------------------------
<CODE> 1 (was CODE)
  Relative segment, address: BEE8 - BFB5 (0xce bytes), align: 1
  Segment part 9.
           ENTRY                   ADDRESS         REF BY
           =====                   =======         ======
           SMPL_SendOpt            BEE8            Segment part 7 (main_ED_BM)
               calls direct
               CSTACK = 00000000 ( 00000016 )
    -------------------------------------------------------------------------
<CODE> 1 (was CODE)
  Relative segment, address: FC2A - FC37 (0xe bytes), align: 1
  Segment part 10.            Intra module refs:   SMPL_SendOpt
    -------------------------------------------------------------------------
<CODE> 1 (was CODE)
  Relative segment, address: E49C - E4DD (0x42 bytes), align: 1
  Segment part 8.
           ENTRY                   ADDRESS         REF BY
           =====                   =======         ======
           SMPL_Receive            E49C            simpliciti_main_sync (main_ED_BM)
               calls direct
               CSTACK = 00000000 ( 00000012 )
    -------------------------------------------------------------------------
<CODE> 1 (was CODE)
  Relative segment, address: FED8 - FEDB (0x4 bytes), align: 1
  Segment part 7.
           ENTRY                   ADDRESS         REF BY
           =====                   =======         ======
           SMPL_Link               FED8            simpliciti_link (main_ED_BM)
               calls direct
               CSTACK = 00000000 ( 00000004 )
    -------------------------------------------------------------------------
<CODE> 1 (was CODE)
  Relative segment, address: B224 - B31F (0xfc bytes), align: 1
  Segment part 3.
           ENTRY                   ADDRESS         REF BY
           =====                   =======         ======
           SMPL_Ioctl              B224            Segment part 19 (nwk_link)
                                                   Segment part 9 (main_ED_BM)
                                                   nwk_join (nwk_join)
                                                   simpliciti_link (main_ED_BM)
               calls direct
               CSTACK = 00000000 ( 00000008 )

    -------------------------------------------------------------------------
  LIBRARY MODULE, NAME : nwk_frame

  SEGMENTS IN THE MODULE
  ======================
DATA16_C
  Relative segment, address: 8186 - 819D (0x18 bytes), align: 1
  Segment part 2.             Intra module refs:   dispatchFrame
    -------------------------------------------------------------------------
DATA16_Z
  Relative segment, address: 1FE2 - 1FE2 (0x1 bytes), align: 0
  Segment part 3.             Intra module refs:   nwk_buildFrame
                                                   nwk_frameInit
    -------------------------------------------------------------------------
DATA16_Z
  Relative segment, address: 1D92 - 1D93 (0x2 bytes), align: 1
  Segment part 4.             Intra module refs:   dispatchFrame
                                                   nwk_buildFrame
                                                   nwk_frameInit
                                                   nwk_sendAckReply
    -------------------------------------------------------------------------
DATA16_Z
  Relative segment, address: 1FE3 - 1FE3 (0x1 bytes), align: 0
  Segment part 5.             Intra module refs:   nwk_buildFrame
                                                   nwk_getMyRxType
                                                   nwk_sendAckReply
    -------------------------------------------------------------------------
DATA16_Z
  Relative segment, address: 1FE4 - 1FE4 (0x1 bytes), align: 0
  Segment part 6.             Intra module refs:   nwk_frameInit
                                                   nwk_sendAckReply
                                                   nwk_sendFrame
    -------------------------------------------------------------------------
DATA16_Z
  Relative segment, address: 1D94 - 1D97 (0x4 bytes), align: 1
  Segment part 7.             Intra module refs:   dispatchFrame
                                                   nwk_frameInit
    -------------------------------------------------------------------------
<CODE> 1 (was CODE)
  Relative segment, address: F2A0 - F2C1 (0x22 bytes), align: 1
  Segment part 16.
           ENTRY                   ADDRESS         REF BY
           =====                   =======         ======
           nwk_frameInit           F2A0            nwk_nwkInit (nwk)
               calls direct
               CSTACK = 00000000 ( 00000004 )
    -------------------------------------------------------------------------
<CODE> 1 (was CODE)
  Relative segment, address: D086 - D105 (0x80 bytes), align: 1
  Segment part 14.            Intra module refs:   nwk_buildAckReqFrame
           ENTRY                   ADDRESS         REF BY
           =====                   =======         ======
           nwk_buildFrame          D086            SMPL_SendOpt (nwk_api)
                                                   nwk_rawSend (nwk_ioctl)
                                                   smpl_send_link_reply (nwk_link)
                                                   smpl_send_ping_reply (nwk_ping)
                                                   smpl_send_unlink_reply (nwk_link)
               calls direct
               CSTACK = 00000000 ( 00000010 )
    -------------------------------------------------------------------------
<CODE> 1 (was CODE)
  Relative segment, address: F4FC - F519 (0x1e bytes), align: 1
  Segment part 15.
           ENTRY                   ADDRESS         REF BY
           =====                   =======         ======
           nwk_buildAckReqFrame    F4FC            SMPL_SendOpt (nwk_api)
               calls direct
               CSTACK = 00000000 ( 00000004 )
    -------------------------------------------------------------------------
<CODE> 1 (was CODE)
  Relative segment, address: F4DE - F4FB (0x1e bytes), align: 1
  Segment part 13.
           ENTRY                   ADDRESS         REF BY
           =====                   =======         ======
           MRFI_RxCompleteISR      F4DE            Mrfi_SyncPinRxIsr (mrfi)
               calls direct
               CSTACK = 00000000 ( 00000006 )
    -------------------------------------------------------------------------
<CODE> 1 (was CODE)
  Relative segment, address: C814 - C8B1 (0x9e bytes), align: 1
  Segment part 12.
           ENTRY                   ADDRESS         REF BY
           =====                   =======         ======
           nwk_retrieveFrame       C814            SMPL_Receive (nwk_api)
                                                   nwk_rawReceive (nwk_ioctl)
               calls direct
               CSTACK = 00000000 ( 00000014 )
    -------------------------------------------------------------------------
<CODE> 1 (was CODE)
  Relative segment, address: C8B2 - C94B (0x9a bytes), align: 1
  Segment part 11.            Intra module refs:   MRFI_RxCompleteISR
           LOCAL                   ADDRESS         
           =====                   =======         
           dispatchFrame           C8B2 
               calls direct and indirect
               CSTACK = 00000000 ( 0000000A )
    -------------------------------------------------------------------------
<CODE> 1 (was CODE)
  Relative segment, address: EE04 - EE31 (0x2e bytes), align: 1
  Segment part 10.
           ENTRY                   ADDRESS         REF BY
           =====                   =======         ======
           nwk_sendFrame           EE04            SMPL_SendOpt (nwk_api)
                                                   Segment part 13 (nwk_link)
                                                   nwk_rawSend (nwk_ioctl)
                                                   smpl_send_ping_reply (nwk_ping)
                                                   smpl_send_unlink_reply (nwk_link)
               calls direct
               CSTACK = 00000000 ( 00000006 )
    -------------------------------------------------------------------------
<CODE> 1 (was CODE)
  Relative segment, address: FE92 - FE97 (0x6 bytes), align: 1
  Segment part 9.
           ENTRY                   ADDRESS         REF BY
           =====                   =======         ======
           nwk_getMyRxType         FE92            nwk_link (nwk_link)
                                                   smpl_send_link_reply (nwk_link)
               CSTACK = 00000000 ( 00000004 )
    -------------------------------------------------------------------------
<CODE> 1 (was CODE)
  Relative segment, address: D186 - D203 (0x7e bytes), align: 1
  Segment part 8.
           ENTRY                   ADDRESS         REF BY
           =====                   =======         ======
           nwk_sendAckReply        D186            nwk_isConnectionValid (nwk)
               calls direct
               CSTACK = 00000000 ( 0000002E )

    -------------------------------------------------------------------------
  LIBRARY MODULE, NAME : nwk_freq

  SEGMENTS IN THE MODULE
  ======================
<CODE> 1 (was CODE)
  Relative segment, address: FEEE - FEEF (0x2 bytes), align: 1
  Segment part 3.
           ENTRY                   ADDRESS         REF BY
           =====                   =======         ======
           nwk_freqInit            FEEE            nwk_nwkInit (nwk)
               CSTACK = 00000000 ( 00000004 )
    -------------------------------------------------------------------------
<CODE> 1 (was CODE)
  Relative segment, address: FEC4 - FEC7 (0x4 bytes), align: 1
  Segment part 2.
           ENTRY                   ADDRESS         REF BY
           =====                   =======         ======
           nwk_processFreq         FEC4            Segment part 2 (nwk_frame)
               CSTACK = 00000000 ( 00000004 )

    -------------------------------------------------------------------------
  LIBRARY MODULE, NAME : nwk_globals

  SEGMENTS IN THE MODULE
  ======================
DATA16_C
  Relative segment, address: 860C - 860F (0x4 bytes), align: 0
  Segment part 2.             Intra module refs:   nwk_getMyAddress
                                                   nwk_globalsInit
    -------------------------------------------------------------------------
DATA16_Z
  Relative segment, address: 1FE5 - 1FE8 (0x4 bytes), align: 0
  Segment part 3.             Intra module refs:   nwk_globalsInit
                                                   nwk_setAPAddress
    -------------------------------------------------------------------------
DATA16_Z
  Relative segment, address: 1FE9 - 1FEC (0x4 bytes), align: 0
  Segment part 4.             Intra module refs:   Segment part 15
                                                   nwk_getMyAddress
    -------------------------------------------------------------------------
DATA16_Z
  Relative segment, address: 1FED - 1FED (0x1 bytes), align: 0
  Segment part 5.             Intra module refs:   Segment part 15
                                                   nwk_getMyAddress
                                                   nwk_globalsInit
                                                   nwk_setMyAddress
    -------------------------------------------------------------------------
DATA16_C
  Relative segment, address: 8610 - 8614 (0x5 bytes), align: 0
  Segment part 6.             Intra module refs:   nwk_getFWVersion
    -------------------------------------------------------------------------
<CODE> 1 (was CODE)
  Relative segment, address: F51A - F537 (0x1e bytes), align: 1
  Segment part 14.
           ENTRY                   ADDRESS         REF BY
           =====                   =======         ======
           nwk_globalsInit         F51A            nwk_nwkInit (nwk)
               calls direct
               CSTACK = 00000000 ( 00000004 )
    -------------------------------------------------------------------------
<CODE> 1 (was CODE)
  Relative segment, address: FBBA - FBC7 (0xe bytes), align: 1
  Segment part 15.            Intra module refs:   nwk_globalsInit
                                                   nwk_setMyAddress
    -------------------------------------------------------------------------
<CODE> 1 (was CODE)
  Relative segment, address: F9E0 - F9F1 (0x12 bytes), align: 1
  Segment part 13.
           ENTRY                   ADDRESS         REF BY
           =====                   =======         ======
           nwk_getMyAddress        F9E0            SMPL_Init (nwk_api)
                                                   nwk_deviceAddress (nwk_ioctl)
                                                   nwk_frameInit (nwk_frame)
                                                   nwk_isValidReply (nwk)
                                                   nwk_processMgmt (nwk_mgmt)
               CSTACK = 00000000 ( 00000004 )
    -------------------------------------------------------------------------
<CODE> 1 (was CODE)
  Relative segment, address: FEB0 - FEB5 (0x6 bytes), align: 1
  Segment part 12.
           ENTRY                   ADDRESS         REF BY
           =====                   =======         ======
           nwk_getFWVersion        FEB0            SMPL_Ioctl (nwk_api)
               CSTACK = 00000000 ( 00000004 )
    -------------------------------------------------------------------------
<CODE> 1 (was CODE)
  Relative segment, address: FEBC - FEBF (0x4 bytes), align: 1
  Segment part 11.
           ENTRY                   ADDRESS         REF BY
           =====                   =======         ======
           nwk_getProtocolVersion
                                   FEBC            SMPL_Ioctl (nwk_api)
                                                   nwk_join (nwk_join)
                                                   nwk_link (nwk_link)
                                                   smpl_send_link_reply (nwk_link)
               CSTACK = 00000000 ( 00000004 )
    -------------------------------------------------------------------------
<CODE> 1 (was CODE)
  Relative segment, address: F8AA - F8BF (0x16 bytes), align: 1
  Segment part 10.
           ENTRY                   ADDRESS         REF BY
           =====                   =======         ======
           nwk_setMyAddress        F8AA            nwk_deviceAddress (nwk_ioctl)
               calls direct
               CSTACK = 00000000 ( 00000004 )
    -------------------------------------------------------------------------
<CODE> 1 (was CODE)
  Relative segment, address: FD42 - FD4D (0xc bytes), align: 1
  Segment part 9.
           ENTRY                   ADDRESS         REF BY
           =====                   =======         ======
           nwk_setAPAddress        FD42            nwk_join (nwk_join)
               calls direct
               CSTACK = 00000000 ( 00000004 )
    -------------------------------------------------------------------------
<CODE> 1 (was CODE)
  Relative segment, address: FEA4 - FEA9 (0x6 bytes), align: 1
  Segment part 7.
           ENTRY                   ADDRESS         REF BY
           =====                   =======         ======
           nwk_getBCastAddress     FEA4            nwk_join (nwk_join)
                                                   nwk_link (nwk_link)
                                                   nwk_nwkInit (nwk)
               CSTACK = 00000000 ( 00000004 )

    -------------------------------------------------------------------------
  LIBRARY MODULE, NAME : nwk_ioctl

  SEGMENTS IN THE MODULE
  ======================
<CODE> 1 (was CODE)
  Relative segment, address: DE6C - DEBB (0x50 bytes), align: 1
  Segment part 6.
           ENTRY                   ADDRESS         REF BY
           =====                   =======         ======
           nwk_rawSend             DE6C            SMPL_Ioctl (nwk_api)
               calls direct
               CSTACK = 00000000 ( 00000008 )
    -------------------------------------------------------------------------
<CODE> 1 (was CODE)
  Relative segment, address: EF6A - EF95 (0x2c bytes), align: 1
  Segment part 5.
           ENTRY                   ADDRESS         REF BY
           =====                   =======         ======
           nwk_rawReceive          EF6A            SMPL_Ioctl (nwk_api)
               calls direct
               CSTACK = 00000000 ( 0000000A )
    -------------------------------------------------------------------------
<CODE> 1 (was CODE)
  Relative segment, address: C94C - C9E5 (0x9a bytes), align: 1
  Segment part 4.
           ENTRY                   ADDRESS         REF BY
           =====                   =======         ======
           nwk_radioControl        C94C            SMPL_Ioctl (nwk_api)
               calls direct
               CSTACK = 00000000 ( 00000008 )
    -------------------------------------------------------------------------
<CODE> 1 (was CODE)
  Relative segment, address: ED78 - EDA7 (0x30 bytes), align: 1
  Segment part 3.
           ENTRY                   ADDRESS         REF BY
           =====                   =======         ======
           nwk_deviceAddress       ED78            SMPL_Ioctl (nwk_api)
               calls direct
               CSTACK = 00000000 ( 00000008 )
    -------------------------------------------------------------------------
<CODE> 1 (was CODE)
  Relative segment, address: F2C2 - F2E3 (0x22 bytes), align: 1
  Segment part 2.
           ENTRY                   ADDRESS         REF BY
           =====                   =======         ======
           nwk_connectionControl   F2C2            SMPL_Ioctl (nwk_api)
               calls direct
               CSTACK = 00000000 ( 00000004 )

    -------------------------------------------------------------------------
  LIBRARY MODULE, NAME : nwk_join

  SEGMENTS IN THE MODULE
  ======================
DATA16_Z
  Relative segment, address: 1D98 - 1D9B (0x4 bytes), align: 1
  Segment part 2.             Intra module refs:   nwk_getJoinToken
                                                   nwk_join
                                                   nwk_joinInit
                                                   nwk_setJoinToken
    -------------------------------------------------------------------------
DATA16_Z
  Relative segment, address: 1D9C - 1D9F (0x4 bytes), align: 1
  Segment part 3.             Intra module refs:   nwk_joinInit
    -------------------------------------------------------------------------
DATA16_Z
  Relative segment, address: 1FEE - 1FEE (0x1 bytes), align: 0
  Segment part 4.             Intra module refs:   nwk_join
                                                   nwk_joinInit
                                                   nwk_processJoin
    -------------------------------------------------------------------------
<CODE> 1 (was CODE)
  Relative segment, address: EFC0 - EFE9 (0x2a bytes), align: 1
  Segment part 9.
           ENTRY                   ADDRESS         REF BY
           =====                   =======         ======
           nwk_joinInit            EFC0            nwk_nwkInit (nwk)
               calls direct
               CSTACK = 00000000 ( 00000004 )
    -------------------------------------------------------------------------
<CODE> 1 (was CODE)
  Relative segment, address: FA3A - FA4B (0x12 bytes), align: 1
  Segment part 8.
           ENTRY                   ADDRESS         REF BY
           =====                   =======         ======
           nwk_setJoinToken        FA3A            SMPL_Ioctl (nwk_api)
               CSTACK = 00000000 ( 00000004 )
    -------------------------------------------------------------------------
<CODE> 1 (was CODE)
  Relative segment, address: FA70 - FA81 (0x12 bytes), align: 1
  Segment part 7.
           ENTRY                   ADDRESS         REF BY
           =====                   =======         ======
           nwk_getJoinToken        FA70            SMPL_Ioctl (nwk_api)
               CSTACK = 00000000 ( 00000004 )
    -------------------------------------------------------------------------
<CODE> 1 (was CODE)
  Relative segment, address: B7EA - B8CF (0xe6 bytes), align: 1
  Segment part 6.
           ENTRY                   ADDRESS         REF BY
           =====                   =======         ======
           nwk_join                B7EA            SMPL_Init (nwk_api)
               calls direct
               CSTACK = 00000000 ( 00000024 )
    -------------------------------------------------------------------------
<CODE> 1 (was CODE)
  Relative segment, address: F328 - F347 (0x20 bytes), align: 1
  Segment part 5.
           ENTRY                   ADDRESS         REF BY
           =====                   =======         ======
           nwk_processJoin         F328            Segment part 2 (nwk_frame)
               calls direct
               CSTACK = 00000000 ( 00000006 )

    -------------------------------------------------------------------------
  LIBRARY MODULE, NAME : nwk_link

  SEGMENTS IN THE MODULE
  ======================
DATA16_Z
  Relative segment, address: 1DA0 - 1DA3 (0x4 bytes), align: 1
  Segment part 2.             Intra module refs:   nwk_getLinkToken
                                                   nwk_link
                                                   nwk_linkInit
                                                   nwk_setLinkToken
                                                   smpl_send_link_reply
    -------------------------------------------------------------------------
DATA16_Z
  Relative segment, address: 1FEF - 1FEF (0x1 bytes), align: 0
  Segment part 3.             Intra module refs:   smpl_send_link_reply
    -------------------------------------------------------------------------
DATA16_Z
  Relative segment, address: 1FF0 - 1FF0 (0x1 bytes), align: 0
  Segment part 4.             Intra module refs:   nwk_linkInit
                                                   smpl_send_link_reply
    -------------------------------------------------------------------------
DATA16_Z
  Relative segment, address: 1FF1 - 1FF1 (0x1 bytes), align: 0
  Segment part 5.             Intra module refs:   smpl_send_link_reply
    -------------------------------------------------------------------------
DATA16_Z
  Relative segment, address: 1FF2 - 1FF2 (0x1 bytes), align: 0
  Segment part 6.             Intra module refs:   nwk_link
                                                   nwk_linkInit
                                                   nwk_processLink
    -------------------------------------------------------------------------
<CODE> 1 (was CODE)
  Relative segment, address: ECB8 - ECE7 (0x30 bytes), align: 1
  Segment part 24.
           ENTRY                   ADDRESS         REF BY
           =====                   =======         ======
           nwk_linkInit            ECB8            nwk_nwkInit (nwk)
               calls direct
               CSTACK = 00000000 ( 00000004 )
    -------------------------------------------------------------------------
<CODE> 1 (was CODE)
  Relative segment, address: FA5E - FA6F (0x12 bytes), align: 1
  Segment part 23.
           ENTRY                   ADDRESS         REF BY
           =====                   =======         ======
           nwk_setLinkToken        FA5E            SMPL_Ioctl (nwk_api)
                                                   nwk_join (nwk_join)
               CSTACK = 00000000 ( 00000004 )
    -------------------------------------------------------------------------
<CODE> 1 (was CODE)
  Relative segment, address: F9F2 - FA03 (0x12 bytes), align: 1
  Segment part 22.
           ENTRY                   ADDRESS         REF BY
           =====                   =======         ======
           nwk_getLinkToken        F9F2            SMPL_Ioctl (nwk_api)
               CSTACK = 00000000 ( 00000004 )
    -------------------------------------------------------------------------
<CODE> 1 (was CODE)
  Relative segment, address: FD1E - FD1F (0x2 bytes), align: 1
  Segment part 18.            Intra module refs:   nwk_link
    -------------------------------------------------------------------------
<CODE> 1 (was CODE)
  Relative segment, address: FD20 - FD29 (0xa bytes), align: 1
  Segment part 19.            Intra module refs:   Segment part 18
                                                   nwk_link
    -------------------------------------------------------------------------
<CODE> 1 (was CODE)
  Relative segment, address: FDEA - FDF3 (0xa bytes), align: 1
  Segment part 20.            Intra module refs:   nwk_link
    -------------------------------------------------------------------------
<CODE> 1 (was CODE)
  Relative segment, address: FDF4 - FDFD (0xa bytes), align: 1
  Segment part 21.            Intra module refs:   nwk_link
    -------------------------------------------------------------------------
<CODE> 1 (was CODE)
  Relative segment, address: ADC6 - AEEF (0x12a bytes), align: 1
  Segment part 16.
           ENTRY                   ADDRESS         REF BY
           =====                   =======         ======
           nwk_link                ADC6            SMPL_Link (nwk_api)
               calls direct
               CSTACK = 00000000 ( 00000026 )
    -------------------------------------------------------------------------
<CODE> 1 (was CODE)
  Relative segment, address: DA3E - DA9D (0x60 bytes), align: 1
  Segment part 15.            Intra module refs:   nwk_processLink
           LOCAL                   ADDRESS         
           =====                   =======         
           smpl_send_unlink_reply
                                   DA3E 
               calls direct
               CSTACK = 00000000 ( 0000000C )
    -------------------------------------------------------------------------
<CODE> 1 (was CODE)
  Relative segment, address: B004 - B113 (0x110 bytes), align: 1
  Segment part 10.            Intra module refs:   nwk_processLink
           LOCAL                   ADDRESS         
           =====                   =======         
           smpl_send_link_reply    B004 
               calls direct
               CSTACK = 00000000 ( 00000014 )
    -------------------------------------------------------------------------
<CODE> 1 (was CODE)
  Relative segment, address: FB74 - FB81 (0xe bytes), align: 1
  Segment part 11.            Intra module refs:   smpl_send_link_reply
    -------------------------------------------------------------------------
<CODE> 1 (was CODE)
  Relative segment, address: F9BC - F9CD (0x12 bytes), align: 1
  Segment part 12.            Intra module refs:   smpl_send_link_reply
    -------------------------------------------------------------------------
<CODE> 1 (was CODE)
  Relative segment, address: FC6A - FC75 (0xc bytes), align: 1
  Segment part 13.            Intra module refs:   smpl_send_link_reply
    -------------------------------------------------------------------------
<CODE> 1 (was CODE)
  Relative segment, address: FD2A - FD35 (0xc bytes), align: 1
  Segment part 14.            Intra module refs:   Segment part 13
                                                   smpl_send_link_reply
    -------------------------------------------------------------------------
<CODE> 1 (was CODE)
  Relative segment, address: DFAA - DFF7 (0x4e bytes), align: 1
  Segment part 9.
           ENTRY                   ADDRESS         REF BY
           =====                   =======         ======
           nwk_processLink         DFAA            Segment part 2 (nwk_frame)
               calls direct
               CSTACK = 00000000 ( 00000006 )

    -------------------------------------------------------------------------
  LIBRARY MODULE, NAME : nwk_mgmt

  SEGMENTS IN THE MODULE
  ======================
DATA16_Z
  Relative segment, address: 1FF3 - 1FF3 (0x1 bytes), align: 0
  Segment part 3.             Intra module refs:   nwk_mgmtInit
                                                   nwk_processMgmt
    -------------------------------------------------------------------------
<CODE> 1 (was CODE)
  Relative segment, address: FD9A - FDA3 (0xa bytes), align: 1
  Segment part 6.
           ENTRY                   ADDRESS         REF BY
           =====                   =======         ======
           nwk_mgmtInit            FD9A            nwk_nwkInit (nwk)
               calls direct
               CSTACK = 00000000 ( 00000004 )
    -------------------------------------------------------------------------
<CODE> 1 (was CODE)
  Relative segment, address: E84C - E885 (0x3a bytes), align: 1
  Segment part 5.
           ENTRY                   ADDRESS         REF BY
           =====                   =======         ======
           nwk_processMgmt         E84C            Segment part 2 (nwk_frame)
               calls direct
               CSTACK = 00000000 ( 00000006 )

    -------------------------------------------------------------------------
  LIBRARY MODULE, NAME : nwk_ping

  SEGMENTS IN THE MODULE
  ======================
DATA16_Z
  Relative segment, address: 1FF4 - 1FF4 (0x1 bytes), align: 0
  Segment part 2.             Intra module refs:   nwk_pingInit
                                                   nwk_processPing
    -------------------------------------------------------------------------
<CODE> 1 (was CODE)
  Relative segment, address: FD86 - FD8F (0xa bytes), align: 1
  Segment part 6.
           ENTRY                   ADDRESS         REF BY
           =====                   =======         ======
           nwk_pingInit            FD86            nwk_nwkInit (nwk)
               calls direct
               CSTACK = 00000000 ( 00000004 )
    -------------------------------------------------------------------------
<CODE> 1 (was CODE)
  Relative segment, address: E562 - E5A3 (0x42 bytes), align: 1
  Segment part 4.             Intra module refs:   nwk_processPing
           LOCAL                   ADDRESS         
           =====                   =======         
           smpl_send_ping_reply    E562 
               calls direct
               CSTACK = 00000000 ( 00000008 )
    -------------------------------------------------------------------------
<CODE> 1 (was CODE)
  Relative segment, address: EE32 - EE5F (0x2e bytes), align: 1
  Segment part 3.
           ENTRY                   ADDRESS         REF BY
           =====                   =======         ======
           nwk_processPing         EE32            Segment part 2 (nwk_frame)
               calls direct
               CSTACK = 00000000 ( 00000006 )

    -------------------------------------------------------------------------
  LIBRARY MODULE, NAME : nwk_security

  SEGMENTS IN THE MODULE
  ======================
<CODE> 1 (was CODE)
  Relative segment, address: FEF2 - FEF3 (0x2 bytes), align: 1
  Segment part 3.
           ENTRY                   ADDRESS         REF BY
           =====                   =======         ======
           nwk_securityInit        FEF2            nwk_nwkInit (nwk)
               CSTACK = 00000000 ( 00000004 )
    -------------------------------------------------------------------------
<CODE> 1 (was CODE)
  Relative segment, address: FEE4 - FEE7 (0x4 bytes), align: 1
  Segment part 2.
           ENTRY                   ADDRESS         REF BY
           =====                   =======         ======
           nwk_processSecurity     FEE4            Segment part 2 (nwk_frame)
               CSTACK = 00000000 ( 00000004 )

    *************************************************************************

  FILE NAME : C:\Program Files (x86)\ChronosSoftware\IAR Systems\Embedded Workbench 5.4 Kickstart\430\LIB\DLIB\dl430xsfn.r43
  LIBRARY MODULE, NAME : ?__dbg_break

  SEGMENTS IN THE MODULE
  ======================
<CODE> 1 (was CODE)
  Relative segment, address: FEEC - FEED (0x2 bytes), align: 1
  Segment part 2.
           ENTRY                   ADDRESS         REF BY
           =====                   =======         ======
           __DebugBreak            FEEC            __exit (?__exit)
               not allocated function

    -------------------------------------------------------------------------
  LIBRARY MODULE, NAME : ?__exit

  SEGMENTS IN THE MODULE
  ======================
<CODE> 1 (was CODE)
  Relative segment, address: F94C - F95F (0x14 bytes), align: 1
  Segment part 2.
           ENTRY                   ADDRESS         REF BY
           =====                   =======         ======
           __exit                  F94C            Segment part 5 (?_exit)
                                                   _exit (?_exit)
               calls direct
               not allocated function

    -------------------------------------------------------------------------
  LIBRARY MODULE, NAME : ?_exit

  SEGMENTS IN THE MODULE
  ======================
<CODE> 1 (was CODE)
  Relative segment, address: FED4, align: 1
  Segment part 0.
           ENTRY                   ADDRESS         REF BY
           =====                   =======         ======
           _exit                   FED4            exit (?exit)
    -------------------------------------------------------------------------
<CODE> 1 (was CODE)
  Relative segment, address: FED4 - FED7 (0x4 bytes), align: 1
  Segment part 5.             Intra module refs:   _exit

    -------------------------------------------------------------------------
  LIBRARY MODULE, NAME : ?cstart

  SEGMENTS IN THE MODULE
  ======================
CSTACK
  Relative segment, address: 2AFE, align: 1
  Segment part 1.
    -------------------------------------------------------------------------
DATA16_Z
  Relative segment, address: 1DA4, align: 1
  Segment part 2.
    -------------------------------------------------------------------------
DATA16_I
  Relative segment, address: 1C54, align: 1
  Segment part 3.
    -------------------------------------------------------------------------
DATA16_ID
  Relative segment, address: 866A, align: 1
  Segment part 4.
    -------------------------------------------------------------------------
CSTART
  Relative segment, address: 868E - 8691 (0x4 bytes), align: 1
  Segment part 10.
           ENTRY                   ADDRESS         REF BY
           =====                   =======         ======
           __program_start         868E            ?reset_vector (?reset_vector)
                                                   Absolute parts (?ABS_ENTRY_MOD)
           ?cstart_begin           868E 
    -------------------------------------------------------------------------
CSTART
  Relative segment, address: 8692 - 8699 (0x8 bytes), align: 1
  Segment part 11.
           ENTRY                   ADDRESS         REF BY
           =====                   =======         ======
           ?cstart_call_low_level_init
                                   8692            __low_level_init (bsp)
    -------------------------------------------------------------------------
CSTART
  Relative segment, address: 869A - 86A5 (0xc bytes), align: 1
  Segment part 13.
           ENTRY                   ADDRESS         REF BY
           =====                   =======         ======
           ?cstart_init_zero       869A            BRRX__CurrentPacketTime_u16 (BRRX_Packet)
                                                   BRRX__CurrentSignalLevel_u8 (BRRX_Packet)
                                                   BRRX__MaxSearchTries_u8 (BRRX_Scheduler)
                                                   BRRX__NextEndTime_u16 (BRRX_Timer)
                                                   BRRX__NextEventTime_u16 (BRRX_Timer)
                                                   BRRX__NextFrequencyOffset_s8 (BRRX_Timer)
                                                   BRRX__NextFrequency_u8 (BRRX_Timer)
                                                   BRRX__PacketBits_t (BR_common)
                                                   BRRX__PowerdownDelay_u8 (BRRX_Scheduler)
                                                   BRRX__SearchRatio_u8 (BRRX_Scheduler)
                                                   BRRX__SignalLevelReduction (BRRX_Scheduler)
                                                   BRRX__StatusFlags_t (BRRX_Packet)
                                                   BRRX__TXCB_t (BRRX_Resource)
                                                   BRRX__TestMode_u8 (BRRX_Scheduler)
                                                   BRRX__TimerState_t (BRRX_Timer)
                                                   Segment part 12 (ports)
                                                   Segment part 18 (mrfi)
                                                   Segment part 19 (mrfi)
                                                   Segment part 19 (timer)
                                                   Segment part 2 (BRRX_API)
                                                   Segment part 2 (BRRX_Scheduler)
                                                   Segment part 2 (nwk_QMgmt)
                                                   Segment part 2 (nwk_join)
                                                   Segment part 2 (nwk_link)
                                                   Segment part 2 (nwk_ping)
                                                   Segment part 20 (mrfi)
                                                   Segment part 21 (mrfi)
                                                   Segment part 22 (mrfi)
                                                   Segment part 23 (mrfi)
                                                   Segment part 24 (mrfi)
                                                   Segment part 25 (mrfi)
                                                   Segment part 28 (mrfi)
                                                   Segment part 29 (mrfi)
                                                   Segment part 3 (BRRX_API)
                                                   Segment part 3 (BRRX_Scheduler)
                                                   Segment part 3 (main_ED_BM)
                                                   Segment part 3 (nwk_QMgmt)
                                                   Segment part 3 (nwk_frame)
                                                   Segment part 3 (nwk_globals)
                                                   Segment part 3 (nwk_join)
                                                   Segment part 3 (nwk_link)
                                                   Segment part 3 (nwk_mgmt)
                                                   Segment part 30 (mrfi)
                                                   Segment part 4 (BRRX_API)
                                                   Segment part 4 (BRRX_Scheduler)
                                                   Segment part 4 (nwk_frame)
                                                   Segment part 4 (nwk_globals)
                                                   Segment part 4 (nwk_join)
                                                   Segment part 4 (nwk_link)
                                                   Segment part 5 (nwk_frame)
                                                   Segment part 5 (nwk_globals)
                                                   Segment part 5 (nwk_link)
                                                   Segment part 6 (nwk_frame)
                                                   Segment part 6 (nwk_link)
                                                   Segment part 7 (BRRX_Radio)
                                                   Segment part 7 (nwk_frame)
                                                   Segment part 8 (BRRX_Radio)
                                                   adc12_data_ready (adc12)
                                                   adc12_result (adc12)
                                                   as_ok (vti_as)
                                                   brrx_packet_end_cap_value (BRRX_Radio)
                                                   burst_end (rfsimpliciti)
                                                   burst_mode (rfsimpliciti)
                                                   burst_packet (rfsimpliciti)
                                                   burst_start (rfsimpliciti)
                                                   button (ports)
                                                   cineDate (cinesync)
                                                   cinemaDisplay (cinema)
                                                   cinesyncDisplay (cinesync)
                                                   display (display)
                                                   fptr_Timer0_A3_function (timer)
                                                   fptr_lcd_function_line1 (main)
                                                   fptr_lcd_function_line2 (main)
                                                   itoa_str (display)
                                                   message (main)
                                                   outAmount (cinema)
                                                   outArray (cinema)
                                                   outPos (cinema)
                                                   p (vti_ps)
                                                   ps_ok (vti_ps)
                                                   ptrMenu_L1 (menu)
                                                   ptrMenu_L2 (menu)
                                                   request (main)
                                                   rf_frequoffset (main)
                                                   sAccel (acceleration)
                                                   sAlarm (alarm)
                                                   sAlt (altitude)
                                                   sBatt (battery)
                                                   sBlueRobin (bluerobin)
                                                   sButton (ports)
                                                   sBuzzer (buzzer)
                                                   sDate (date)
                                                   sInit_done (nwk_api)
                                                   sRFsmpl (rfsimpliciti)
                                                   sStopwatch (stopwatch)
                                                   sTemp (temperature)
                                                   sTime (clock)
                                                   sTimer (timer)
                                                   simpliciti_data (rfsimpliciti)
                                                   simpliciti_ed_address (rfsimpliciti)
                                                   simpliciti_flag (rfsimpliciti)
                                                   simpliciti_get_ed_data_callback::packet_counter (rfsimpliciti)
                                                   simpliciti_payload_length (rfsimpliciti)
                                                   simpliciti_reply_count (rfsimpliciti)
                                                   stopwatch_tick::delay (stopwatch)
                                                   sys (main)
    -------------------------------------------------------------------------
CSTART
  Relative segment, address: 86A6 - 86B5 (0x10 bytes), align: 1
  Segment part 14.
           ENTRY                   ADDRESS         REF BY
           =====                   =======         ======
           ?cstart_init_copy       86A6            Segment part 13 (ports)
                                                   Segment part 2 (nwk)
                                                   Segment part 26 (mrfi)
                                                   method (mrfi)
                                                   segments_lcdmem (display1)
    -------------------------------------------------------------------------
CSTART
  Relative segment, address: 86B6 - 86BD (0x8 bytes), align: 1
  Segment part 19.            Intra module refs:   ?cstart_call_low_level_init
                                                   Segment part 10
           ENTRY                   ADDRESS         REF BY
           =====                   =======         ======
           ?cstart_call_main       86B6 
           ?cstart_end             86BE 

    -------------------------------------------------------------------------
  LIBRARY MODULE, NAME : ?reset_vector

  SEGMENTS IN THE MODULE
  ======================
RESET
  Relative segment, address: FFFE - FFFF (0x2 bytes), align: 1
  Segment part 0.
           ENTRY                   ADDRESS         REF BY
           =====                   =======         ======
           ?reset_vector           FFFE            Segment part 10 (?cstart)

    -------------------------------------------------------------------------
  LIBRARY MODULE, NAME : ?exit

  SEGMENTS IN THE MODULE
  ======================
<CODE> 1 (was CODE)
  Relative segment, address: FED0 - FED3 (0x4 bytes), align: 1
  Segment part 2.
           ENTRY                   ADDRESS         REF BY
           =====                   =======         ======
           exit                    FED0            Segment part 19 (?cstart)
               calls direct
               CSTACK = 00000000 ( 00000004 )

    -------------------------------------------------------------------------
  LIBRARY MODULE, NAME : ?Cast32f32i

  SEGMENTS IN THE MODULE
  ======================
<CODE> 1 (was CODE)
  Relative segment, address: CC38 - CCC9 (0x92 bytes), align: 1
  Segment part 0.
           ENTRY                   ADDRESS         REF BY
           =====                   =======         ======
           _Cast32sto32f           CC38            conv_pa_to_meter (vti_ps)
                                                   update_pressure_table (vti_ps)
           _Cast32uto32f           CC4C            conv_pa_to_meter (vti_ps)
                                                   display_acceleration (acceleration)
                                                   display_distance (bluerobin)
                                                   display_speed (bluerobin)
                                                   do_altitude_measurement (altitude)
                                                   init_pressure_table (vti_ps)
                                                   update_pressure_table (vti_ps)

    -------------------------------------------------------------------------
  LIBRARY MODULE, NAME : _Cast32fto32u

  SEGMENTS IN THE MODULE
  ======================
<CODE> 1 (was CODE)
  Relative segment, address: FD66 - FD71 (0xc bytes), align: 1
  Segment part 0.
           ENTRY                   ADDRESS         REF BY
           =====                   =======         ======
           _Cast32fto32u           FD66            conv_pa_to_meter (vti_ps)
                                                   display_acceleration (acceleration)
                                                   display_distance (bluerobin)
                                                   display_speed (bluerobin)
                                                   do_altitude_measurement (altitude)

    -------------------------------------------------------------------------
  LIBRARY MODULE, NAME : ?FLT_Extract

  SEGMENTS IN THE MODULE
  ======================
<CODE> 1 (was CODE)
  Relative segment, address: E092 - E0DD (0x4c bytes), align: 1
  Segment part 0.
           ENTRY                   ADDRESS         REF BY
           =====                   =======         ======
           ?FLT_Extract            E092            _Cast32fto32u (_Cast32fto32u)

    -------------------------------------------------------------------------
  LIBRARY MODULE, NAME : ?FLT_LT

  SEGMENTS IN THE MODULE
  ======================
<CODE> 1 (was CODE)
  Relative segment, address: DE1A - DE6B (0x52 bytes), align: 1
  Segment part 0.
           ENTRY                   ADDRESS         REF BY
           =====                   =======         ======
           ?FLT_LT                 DE1A            _CmpLt32f (_CmpLt32f)

    -------------------------------------------------------------------------
  LIBRARY MODULE, NAME : _CmpLt32f

  SEGMENTS IN THE MODULE
  ======================
<CODE> 1 (was CODE)
  Relative segment, address: FD7C - FD85 (0xa bytes), align: 1
  Segment part 0.
           ENTRY                   ADDRESS         REF BY
           =====                   =======         ======
           _CmpLt32f               FD7C            conv_pa_to_meter (vti_ps)
                                                   update_pressure_table (vti_ps)

    -------------------------------------------------------------------------
  LIBRARY MODULE, NAME : _Mul32f

  SEGMENTS IN THE MODULE
  ======================
<CODE> 1 (was CODE)
  Relative segment, address: B114 - B223 (0x110 bytes), align: 1
  Segment part 0.
           ENTRY                   ADDRESS         REF BY
           =====                   =======         ======
           _Mul32f                 B114            conv_pa_to_meter (vti_ps)
                                                   display_acceleration (acceleration)
                                                   display_distance (bluerobin)
                                                   display_speed (bluerobin)
                                                   do_altitude_measurement (altitude)
                                                   update_pressure_table (vti_ps)

    -------------------------------------------------------------------------
  LIBRARY MODULE, NAME : _Div32f

  SEGMENTS IN THE MODULE
  ======================
<CODE> 1 (was CODE)
  Relative segment, address: AC96 - ADC5 (0x130 bytes), align: 1
  Segment part 0.
           ENTRY                   ADDRESS         REF BY
           =====                   =======         ======
           _Div32f                 AC96            conv_pa_to_meter (vti_ps)
                                                   update_pressure_table (vti_ps)

    -------------------------------------------------------------------------
  LIBRARY MODULE, NAME : _Add32f

  SEGMENTS IN THE MODULE
  ======================
<CODE> 1 (was CODE)
  Relative segment, address: A50C - A66D (0x162 bytes), align: 1
  Segment part 0.
           ENTRY                   ADDRESS         REF BY
           =====                   =======         ======
           _Add32f                 A510            conv_pa_to_meter (vti_ps)
                                                   display_acceleration (acceleration)
                                                   do_altitude_measurement (altitude)
                                                   update_pressure_table (vti_ps)
           _Sub32f                 A50C            conv_pa_to_meter (vti_ps)
                                                   update_pressure_table (vti_ps)

    -------------------------------------------------------------------------
  LIBRARY MODULE, NAME : ?Mul816

  SEGMENTS IN THE MODULE
  ======================
<CODE> 1 (was CODE)
  Relative segment, address: EC22 - EC53 (0x32 bytes), align: 1
  Segment part 0.
           ENTRY                   ADDRESS         REF BY
           =====                   =======         ======
           ?Mul8                   EC22 
           ?Mul16                  EC26            convert_acceleration_value_to_mgrav (acceleration)
                                                   get_bluerobin_data (bluerobin)
           ?Mul16to32u             EC26 

    -------------------------------------------------------------------------
  LIBRARY MODULE, NAME : ?Mul32

  SEGMENTS IN THE MODULE
  ======================
<CODE> 1 (was CODE)
  Relative segment, address: ED18 - ED47 (0x30 bytes), align: 1
  Segment part 0.
           ENTRY                   ADDRESS         REF BY
           =====                   =======         ======
           ?Mul32                  ED18            convert_ft_to_m (altitude)
                                                   convert_m_to_ft (altitude)
                                                   mx_caldist (bluerobin)
                                                   temperature_measurement (temperature)

    -------------------------------------------------------------------------
  LIBRARY MODULE, NAME : ?DivMod816u

  SEGMENTS IN THE MODULE
  ======================
<CODE> 1 (was CODE)
  Relative segment, address: F5FC - F617 (0x1c bytes), align: 1
  Segment part 0.
           ENTRY                   ADDRESS         REF BY
           =====                   =======         ======
           ?DivMod8u               F5FC 
           ?DivMod16u              F600            Segment part 0 (?DivMod816s)
                                                   battery_measurement (battery)
                                                   display_acceleration (acceleration)
                                                   get_numberOfDays (date)

    -------------------------------------------------------------------------
  LIBRARY MODULE, NAME : ?DivMod816s

  SEGMENTS IN THE MODULE
  ======================
<CODE> 1 (was CODE)
  Relative segment, address: EABA - EAED (0x34 bytes), align: 1
  Segment part 0.
           ENTRY                   ADDRESS         REF BY
           =====                   =======         ======
           ?DivMod8s               EABA 
           ?DivMod16s              EABE            Mrfi_CalculateRssi (mrfi)
                                                   convert_C_to_F (temperature)
                                                   convert_F_to_C (temperature)

    -------------------------------------------------------------------------
  LIBRARY MODULE, NAME : ?DivMod32u

  SEGMENTS IN THE MODULE
  ======================
<CODE> 1 (was CODE)
  Relative segment, address: E9A6 - E9DD (0x38 bytes), align: 1
  Segment part 0.
           ENTRY                   ADDRESS         REF BY
           =====                   =======         ======
           ?DivMod32u              E9A6            ?DivMod32s (?DivMod32s)
                                                   display_calories (bluerobin)
                                                   display_distance (bluerobin)
                                                   itoa (display)
                                                   mx_caldist (bluerobin)

    -------------------------------------------------------------------------
  LIBRARY MODULE, NAME : ?DivMod32s

  SEGMENTS IN THE MODULE
  ======================
<CODE> 1 (was CODE)
  Relative segment, address: E664 - E6A3 (0x40 bytes), align: 1
  Segment part 0.
           ENTRY                   ADDRESS         REF BY
           =====                   =======         ======
           ?DivMod32s              E664            button_repeat_on (ports)
                                                   convert_ft_to_m (altitude)
                                                   convert_m_to_ft (altitude)
                                                   mx_caldist (bluerobin)
                                                   set_value (user)
                                                   temperature_measurement (temperature)

    -------------------------------------------------------------------------
  LIBRARY MODULE, NAME : ?ShiftLeft32

  SEGMENTS IN THE MODULE
  ======================
<CODE> 1 (was CODE)
  Relative segment, address: F5E0 - F5FB (0x1c bytes), align: 1
  Segment part 0.
           ENTRY                   ADDRESS         REF BY
           =====                   =======         ======
           ?ShiftLeft32            F5E0            convert_acceleration_value_to_mgrav (acceleration)

    -------------------------------------------------------------------------
  LIBRARY MODULE, NAME : ?ShiftRight32u

  SEGMENTS IN THE MODULE
  ======================
<CODE> 1 (was CODE)
  Relative segment, address: F4C0 - F4DD (0x1e bytes), align: 1
  Segment part 0.
           ENTRY                   ADDRESS         REF BY
           =====                   =======         ======
           ?ShiftRight32u          F4C0            convert_acceleration_value_to_mgrav (acceleration)

    -------------------------------------------------------------------------
  LIBRARY MODULE, NAME : ?memcmp

  SEGMENTS IN THE MODULE
  ======================
<CODE> 1 (was CODE)
  Relative segment, address: F348 - F367 (0x20 bytes), align: 1
  Segment part 2.
           ENTRY                   ADDRESS         REF BY
           =====                   =======         ======
           memcmp                  F348            Segment part 18 (nwk)
                                                   dispatchFrame (nwk_frame)
                                                   nwk_QfindOldest (nwk_QMgmt)
                                                   nwk_processMgmt (nwk_mgmt)
               CSTACK = 00000000 ( 00000004 )

    -------------------------------------------------------------------------
  LIBRARY MODULE, NAME : ?memcpy

  SEGMENTS IN THE MODULE
  ======================
<CODE> 1 (was CODE)
  Relative segment, address: FA04 - FA15 (0x12 bytes), align: 1
  Segment part 2.
           ENTRY                   ADDRESS         REF BY
           =====                   =======         ======
           memcpy                  FA04            SMPL_Ioctl (nwk_api)
                                                   SMPL_SendOpt (nwk_api)
                                                   Segment part 14 (nwk_link)
                                                   Segment part 15 (nwk_globals)
                                                   __data16_memcpy (?memzero)
                                                   display_update (main)
                                                   itoa (display)
                                                   nwk_buildFrame (nwk_frame)
                                                   nwk_deviceAddress (nwk_ioctl)
                                                   nwk_join (nwk_join)
                                                   nwk_link (nwk_link)
                                                   nwk_nwkInit (nwk)
                                                   nwk_radioControl (nwk_ioctl)
                                                   nwk_rawSend (nwk_ioctl)
                                                   nwk_retrieveFrame (nwk_frame)
                                                   nwk_sendAckReply (nwk_frame)
                                                   nwk_setAPAddress (nwk_globals)
                                                   reset_stopwatch (stopwatch)
                                                   smpl_send_ping_reply (nwk_ping)
                                                   smpl_send_unlink_reply (nwk_link)
               CSTACK = 00000000 ( 00000004 )

    -------------------------------------------------------------------------
  LIBRARY MODULE, NAME : ?memmove

  SEGMENTS IN THE MODULE
  ======================
<CODE> 1 (was CODE)
  Relative segment, address: EB56 - EB89 (0x34 bytes), align: 1
  Segment part 2.
           ENTRY                   ADDRESS         REF BY
           =====                   =======         ======
           memmove                 EB56            nwk_getNumObjectFromMsg (nwk)
                                                   nwk_putNumObjectIntoMsg (nwk)
               CSTACK = 00000000 ( 00000006 )

    -------------------------------------------------------------------------
  LIBRARY MODULE, NAME : ?CopyMemoryBytes

  SEGMENTS IN THE MODULE
  ======================
<CODE> 1 (was CODE)
  Relative segment, address: FB18 - FB27 (0x10 bytes), align: 1
  Segment part 0.
           ENTRY                   ADDRESS         REF BY
           =====                   =======         ======
           ?CopyMemoryBytes        FB18            MRFI_Receive (mrfi)

    -------------------------------------------------------------------------
  LIBRARY MODULE, NAME : ?memset

  SEGMENTS IN THE MODULE
  ======================
<CODE> 1 (was CODE)
  Relative segment, address: FA4C - FA5D (0x12 bytes), align: 1
  Segment part 2.
           ENTRY                   ADDRESS         REF BY
           =====                   =======         ======
           memset                  FA4C            MRFI_Init (mrfi)
                                                   Segment part 63 (mrfi)
                                                   nwk_QInit (nwk_QMgmt)
                                                   nwk_allocateLocalRxPort (nwk)
                                                   nwk_globalsInit (nwk_globals)
                                                   nwk_linkInit (nwk_link)
                                                   nwk_nwkInit (nwk)
               CSTACK = 00000000 ( 00000004 )

    -------------------------------------------------------------------------
  LIBRARY MODULE, NAME : ?memzero

  SEGMENTS IN THE MODULE
  ======================
<CODE> 1 (was CODE)
  Relative segment, address: F986 - F997 (0x12 bytes), align: 1
  Segment part 4.
           ENTRY                   ADDRESS         REF BY
           =====                   =======         ======
           __data16_memzero        F986            ?cstart_init_zero (?cstart)
               CSTACK = 00000000 ( 00000004 )
    -------------------------------------------------------------------------
<CODE> 1 (was CODE)
  Relative segment, address: FEC8 - FECB (0x4 bytes), align: 1
  Segment part 3.
           ENTRY                   ADDRESS         REF BY
           =====                   =======         ======
           __data16_memcpy         FEC8            ?cstart_init_copy (?cstart)
               calls direct
               CSTACK = 00000000 ( 00000004 )

    -------------------------------------------------------------------------
  LIBRARY MODULE, NAME : ?IndCallR9

  SEGMENTS IN THE MODULE
  ======================
<CODE> 1 (was CODE)
  Relative segment, address: FEC0 - FEC3 (0x4 bytes), align: 1
  Segment part 0.
           ENTRY                   ADDRESS         REF BY
           =====                   =======         ======
           ?IndCallR9              FEC0            set_value (user)

    -------------------------------------------------------------------------
  LIBRARY MODULE, NAME : ?IndCallR15

  SEGMENTS IN THE MODULE
  ======================
<CODE> 1 (was CODE)
  Relative segment, address: FEE8 - FEEB (0x4 bytes), align: 1
  Segment part 0.
           ENTRY                   ADDRESS         REF BY
           =====                   =======         ======
           ?IndCallR15             FEE8            dispatchFrame (nwk_frame)
                                                   display_update (main)
                                                   wakeup_event (main)




                ****************************************
                *                                      *
                *      SEGMENTS IN ADDRESS ORDER       *
                *                                      *
                ****************************************


SEGMENT              SPACE    START ADDRESS   END ADDRESS     SIZE  TYPE  ALIGN
=======              =====    =============   ===========     ====  ====  =====
DATA16_AN                              0102 - 0103               2   rel    0
                                       0120 - 0121               2 
                                       0124 - 0127               4 
                                       012C - 012D               2 
                                       015C - 015D               2 
                                       0160 - 0169               A 
                                       016C - 016F               4 
                                       01B0 - 01B1               2 
                                       01C0 - 01C3               4 
                                       01C8 - 01C9               2 
                                       01D0 - 01D1               2 
                                       0200 - 0207               8 
                                       020A - 020B               2 
                                       0218 - 021D               6 
                                       0222 - 0225               4 
                                       0244 - 0245               2 
                                       024A - 024B               2 
                                       0320 - 0325               6 
                                       0340 - 034B               C 
                                       0350 - 035B               C 
                                       036E - 036F               2 
                                       0380 - 0383               4 
                                       0390 - 0393               4 
                                       05C0 - 05C1               2 
                                       05C6 - 05C7               2 
                                       05CC - 05CC               1 
                                       05CE - 05CE               1 
                                       05DC - 05DD               2 
                                       0700 - 0703               4 
                                       070C - 0710               5 
                                       0720 - 0721               2 
                                       0A00 - 0A01               2 
                                       0A04 - 0A0D               A 
                                       0F02 - 0F03               2 
                                       0F06 - 0F07               2 
                                       0F0C - 0F13               8 
                                       0F20 - 0F23               4 
                                       0F30 - 0F39               A 
DATA16_I                               1C00 - 1C76              77   rel    1
DATA16_Z                               1C78 - 1FF4             37D   rel    1
CSTACK                                 2AFE - 2BFD             100   rel    1
DATA16_C                               8000 - 8614             615   rel    1
DATA16_ID                              8616 - 868C              77   rel    1
CSTART                                 868E - 86BD              30   rel    1
ISR_CODE                               86BE - 8B59             49C   rel    1
<CODE> 1                               8B5A - FEF5            739C   rel    1
INTVEC                                 FF80 - FFF1              72   com    1
RESET                                  FFFE - FFFF               2   rel    1

                ****************************************
                *                                      *
                *        END OF CROSS REFERENCE        *
                *                                      *
                ****************************************

 30 940 bytes of CODE  memory
  1 268 bytes of DATA  memory (+ 157 absolute )
  1 676 bytes of CONST memory

Errors: none
Warnings: none

